(dp0
Vraining
p1
I563
sVall
p2
I704
sVchinese
p3
I234
sVskis
p4
I145
sVceramic
p5
I419
sVteddy bear
p6
I191
sVyellow
p7
I14
sVhalloween
p8
I865
sVasian
p9
I273
sVskiing
p10
I35
sVgo
p11
I472
sVchair
p12
I125
sVmilk
p13
I302
sVcarpet
p14
I203
sVdouble decker
p15
I544
sVapartment
p16
I916
sVasphalt
p17
I577
sVtv
p18
I170
sVswan
p19
I779
sVyoung
p20
I375
sV0
p21
I10
sVbicycles
p22
I729
sVbike
p23
I135
sVon road
p24
I888
sVone on right
p25
I755
sVsmile
p26
I644
sVgravel
p27
I920
sVhats
p28
I661
sVon plate
p29
I457
sVbrown
p30
I13
sVfamily
p31
I792
sVwoman
p32
I65
sVstring
p33
I874
sVsitting
p34
I97
sVvery
p35
I331
sVdessert
p36
I386
sVblanket
p37
I346
sVdell
p38
I237
sVvase
p39
I320
sVspoon
p40
I192
sVfan
p41
I606
sVfall
p42
I172
sVsony
p43
I673
sVdrinking
p44
I358
sVfireplace
p45
I960
sVon wall
p46
I454
sVclouds
p47
I227
sVparrot
p48
I824
sVwooden
p49
I498
sVlaying
p50
I708
sVcloudy
p51
I115
sVfrosting
p52
I852
sVlarge
p53
I456
sVp
p54
I629
sVsand
p55
I124
sVgray and white
p56
I576
sVwii controller
p57
I322
sVteal
p58
I660
sVplain
p59
I521
sVsmall
p60
I259
sVsidewalk
p61
I206
sVround
p62
I165
sVclothes
p63
I357
sVpork
p64
I803
sVwork
p65
I627
sVbicycle
p66
I215
sVfence
p67
I146
sVtea
p68
I514
sVbacon
p69
I612
sVjapanese
p70
I662
sVboots
p71
I470
sVsign
p72
I283
sVchef
p73
I941
sVstreet
p74
I141
sVroof
p75
I900
sVrectangular
p76
I816
sVfork and knife
p77
I844
sVblue
p78
I9
sVcargo
p79
I681
sVsausage
p80
I605
sVboats
p81
I522
sVclock
p82
I190
sVcandle
p83
I753
sVsun
p84
I229
sVcooking
p85
I243
sVasia
p86
I763
sVchildren
p87
I856
sVlights
p88
I336
sVwaiting
p89
I666
sVindian
p90
I750
sVpoles
p91
I478
sVabove
p92
I667
sVnew
p93
I556
sVnet
p94
I913
sVblender
p95
I565
sVracing
p96
I984
sVbird
p97
I100
sVhelmets
p98
I641
sVfull
p99
I585
sVunsure
p100
I326
sVcookies
p101
I964
sVblue and green
p102
I904
sVmen
p103
I539
sVcommercial
p104
I765
sVfrench
p105
I721
sVsurfer
p106
I752
sVwater
p107
I38
sVnewspaper
p108
I839
sVtracks
p109
I477
sVprotection
p110
I738
sVbaseball
p111
I19
sVsink
p112
I306
sVtwin
p113
I829
sV100
p114
I255
sVmozzarella
p115
I823
sVbox
p116
I348
sVboy
p117
I158
sV38
p118
I711
sVluggage
p119
I264
sV33
p120
I867
sV32
p121
I675
sVleaves
p122
I230
sV30
p123
I186
sV35
p124
I508
sVbow
p125
I743
sVelectricity
p126
I607
sVairport
p127
I179
sVno parking
p128
I701
sVsmoke
p129
I582
sVmilitary
p130
I805
sVchain
p131
I944
sVvideo game
p132
I714
sVpillow
p133
I458
sVapple
p134
I60
sVadidas
p135
I299
sVstraw
p136
I713
sVafrica
p137
I256
sVwii
p138
I53
sVon right
p139
I505
sVspanish
p140
I928
sVsnowboard
p141
I156
sVindoors
p142
I442
sVduck
p143
I525
sVplaying wii
p144
I253
sVsan francisco
p145
I965
sVparking
p146
I487
sVmarket
p147
I706
sVstanding
p148
I75
sVusa
p149
I194
sVarmy
p150
I923
sVdonuts
p151
I205
sVsweater
p152
I709
sVtexting
p153
I573
sVflip flops
p154
I745
sVfrance
p155
I784
sVsuit
p156
I584
sVcamera
p157
I90
sVcalm
p158
I503
sV6
p159
I17
sVmidday
p160
I914
sVelectric
p161
I350
sVhorses
p162
I133
sVplaying frisbee
p163
I489
sVdiamond
p164
I716
sVdoor
p165
I481
sVchain link
p166
I808
sVbottle
p167
I479
sVfruits
p168
I985
sVharley davidson
p169
I989
sVchocolate
p170
I201
sVdowntown
p171
I987
sVphone
p172
I55
sVflag
p173
I486
sVtrain
p174
I70
sVadult
p175
I428
sVplaying tennis
p176
I360
sVbaby
p177
I296
sVducks
p178
I614
sVblinds
p179
I589
sVwhite and black
p180
I250
sVwomen
p181
I658
sVnone
p182
I31
sVwool
p183
I953
sVsalad
p184
I325
sVcar
p185
I112
sVred and green
p186
I806
sVcap
p187
I511
sVhit ball
p188
I793
sVcat
p189
I33
sVdonut
p190
I123
sVtag
p191
I862
sVclock tower
p192
I653
sVseagull
p193
I407
sVmale
p194
I78
sVpickle
p195
I903
sVmarble
p196
I523
sVcollie
p197
I780
sVheart
p198
I469
sVi don't know
p199
I312
sVindia
p200
I695
sVsoup
p201
I364
sVhigh
p202
I690
sVcarrot
p203
I251
sVposing
p204
I362
sVwiimote
p205
I727
sVcows
p206
I142
sVtriangle
p207
I418
sVtan
p208
I49
sVdress
p209
I610
sVairplane
p210
I154
sVbaseball field
p211
I804
sVicing
p212
I939
sVpink
p213
I29
sVunited
p214
I549
sVwinter
p215
I71
sVplaying video game
p216
I972
sVonions
p217
I634
sVstripe
p218
I735
sVpine
p219
I347
sV1
p220
I4
sVlamp
p221
I421
sVforest
p222
I648
sVelephant
p223
I57
sVtile
p224
I102
sVbandana
p225
I882
sVbeach
p226
I80
sVgoat
p227
I642
sVbeige
p228
I113
sVplant
p229
I452
sVsandwich
p230
I114
sVfarm
p231
I671
sVsunny
p232
I67
sVdaisy
p233
I639
sVjumping
p234
I435
sVmac
p235
I767
sVbirthday
p236
I147
sVtrees
p237
I92
sVwaves
p238
I613
sVfloral
p239
I351
sVcell phone
p240
I116
sVwave
p241
I772
sVterrier
p242
I657
sVmushrooms
p243
I873
sVman
p244
I37
sVtomato
p245
I276
sVshort
p246
I272
sVnatural
p247
I940
sVlight
p248
I217
sVred and blue
p249
I566
sVcounter
p250
I288
sVharley
p251
I692
sVbakery
p252
I834
sVski poles
p253
I304
sVtruck
p254
I152
sVsouth
p255
I580
sVshade
p256
I581
sVafrican
p257
I760
sVbasket
p258
I506
sVtall
p259
I635
sVegg
p260
I878
sVplaying
p261
I197
sVwind
p262
I598
sVwine
p263
I86
sVbull
p264
I693
sVserving
p265
I906
sVshoes
p266
I353
sVoffice
p267
I248
sVpelican
p268
I908
sVpaper
p269
I189
sVlondon
p270
I315
sVmotorcycle
p271
I79
sVoven
p272
I370
sVkeyboard
p273
I340
sVjapan
p274
I599
sVcold
p275
I216
sVbirds
p276
I224
sV24
p277
I349
sV25
p278
I182
sV26
p279
I736
sV27
p280
I588
sV20
p281
I91
sV21
p282
I413
sV22
p283
I389
sV23
p284
I396
sVbackpack
p285
I286
sV28
p286
I513
sVhot
p287
I441
sVwindow
p288
I220
sVorange
p289
I22
sVsoccer
p290
I63
sVsauce
p291
I615
sVwater skiing
p292
I594
sV2012
p293
I905
sVwoods
p294
I980
sVcoffee
p295
I155
sVevening
p296
I235
sVtaking off
p297
I436
sVfood
p298
I64
sVdoughnuts
p299
I654
sVwhite and blue
p300
I319
sVnokia
p301
I809
sVtalking on phone
p302
I446
sVoranges
p303
I265
sVlunch
p304
I317
sVgiraffe
p305
I47
sVstarbucks
p306
I851
sVhands
p307
I702
sVfront
p308
I301
sVon sidewalk
p309
I918
sVblack, white
p310
I826
sVsilver
p311
I40
sVbricks
p312
I372
sVbread
p313
I262
sVunited states
p314
I453
sVbrushing teeth
p315
I402
sVmeat
p316
I414
sVpotatoes
p317
I737
sVrocks
p318
I328
sVasparagus
p319
I936
sVtomatoes
p320
I445
sVrock
p321
I361
sVpizza
p322
I26
sVtrash can
p323
I646
sVglasses
p324
I151
sVsquare
p325
I159
sVengland
p326
I371
sVelephants
p327
I209
sVon bed
p328
I623
sVhouse
p329
I254
sVfish
p330
I269
sVwhite and gray
p331
I817
sVbuildings
p332
I689
sVto left
p333
I645
sVbooks
p334
I324
sVzebra
p335
I89
sVnavy
p336
I717
sVgirl
p337
I139
sVice cream
p338
I593
sVout
p339
I744
sVcanada
p340
I459
sVliving
p341
I422
sVcotton
p342
I572
sVflower
p343
I290
sVdriving
p344
I758
sVtennis ball
p345
I462
sVparasailing
p346
I921
sVtulips
p347
I699
sVjump
p348
I969
sVpigeon
p349
I833
sVmonitor
p350
I997
sVlooking
p351
I480
sVgame controller
p352
I814
sVsafety
p353
I464
sVmaple
p354
I625
sV7
p355
I30
sVbrown and white
p356
I258
sVsquares
p357
I796
sVcaucasian
p358
I647
sVred
p359
I7
sVsubway
p360
I720
sVeagle
p361
I848
sVcabinet
p362
I715
sVworking
p363
I895
sVumbrella
p364
I77
sVon counter
p365
I777
sVsoftball
p366
I783
sVdirt
p367
I148
sVcars
p368
I339
sVporcelain
p369
I718
sVpug
p370
I949
sVsteel
p371
I449
sVlittle
p372
I901
sVparking lot
p373
I538
sVmercedes
p374
I929
sVbasketball
p375
I811
sVcalifornia
p376
I759
sVrain
p377
I332
sVgrapes
p378
I672
sVheadband
p379
I617
sVmonkey
p380
I981
sVsteak
p381
I770
sVheadphones
p382
I680
sVskateboard
p383
I46
sVamerican
p384
I279
sVplane
p385
I109
sVpepperoni
p386
I294
sVw
p387
I674
sVsoda
p388
I440
sVsnowboarding
p389
I76
sVscarf
p390
I491
sVtoilet paper
p391
I531
sVcheese
p392
I143
sVflying
p393
I381
sVcigarette
p394
I937
sVvanilla
p395
I553
sVtennis racket
p396
I174
sVright side
p397
I875
sVlettuce
p398
I241
sVcan't see
p399
I812
sVsunlight
p400
I810
sVfire truck
p401
I787
sVscissors
p402
I199
sVring
p403
I739
sVopen
p404
I164
sVumbrellas
p405
I394
sVsheep
p406
I72
sVcity
p407
I213
sVhorse
p408
I43
sVtoy
p409
I490
sVhydrant
p410
I497
sVjet
p411
I537
sVspinach
p412
I344
sVbears
p413
I476
sVunknown
p414
I69
sVtop
p415
I427
sVbig ben
p416
I877
sVplastic
p417
I160
sVpaint
p418
I500
sV2
p419
I3
sVphones
p420
I869
sVlab
p421
I529
sVwhite
p422
I5
sVblue and black
p423
I846
sVbanana
p424
I68
sVketchup
p425
I367
sVbeard
p426
I786
sVurban
p427
I597
sVceiling
p428
I724
sVon grass
p429
I894
sVshorts
p430
I334
sVbulldog
p431
I870
sVshelf
p432
I518
sVpublic
p433
I663
sVhotel
p434
I384
sVpark
p435
I210
sVyellow and blue
p436
I603
sVsurfing
p437
I45
sVflowers
p438
I98
sVstairs
p439
I911
sVcenter
p440
I707
sV11
p441
I108
sV10
p442
I39
sV13
p443
I137
sV12
p444
I61
sV15
p445
I103
sV14
p446
I169
sV17
p447
I321
sV16
p448
I202
sV19
p449
I455
sV18
p450
I282
sVnight time
p451
I932
sVtree
p452
I120
sVboard
p453
I559
sVbed
p454
I107
sVdogs
p455
I499
sVshower
p456
I842
sVapples
p457
I245
sVoutdoors
p458
I310
sVcountry
p459
I861
sVdrywall
p460
I958
sVbridge
p461
I380
sVphotographer
p462
I409
sVgiraffes
p463
I281
sVboston
p464
I863
sV10 feet
p465
I956
sVcarrots
p466
I198
sVcucumber
p467
I938
sVone way
p468
I536
sVsad
p469
I791
sVtalking
p470
I354
sVgraffiti
p471
I297
sVyellow and red
p472
I683
sVyellow and white
p473
I732
sVbreakfast
p474
I207
sVtelevision
p475
I494
sVbatting
p476
I630
sVmountain
p477
I266
sVwilson
p478
I423
sVsprinkles
p479
I951
sVconcrete
p480
I173
sVsnow
p481
I48
sVzoo
p482
I184
sVsandwiches
p483
I889
sVgreen
p484
I12
sVvisor
p485
I966
sVhp
p486
I678
sVchopsticks
p487
I864
sVsurf
p488
I626
sV200
p489
I733
sVfun
p490
I994
sVnobody
p491
I460
sVzebras
p492
I300
sVnormal
p493
I978
sVeggs
p494
I722
sVguitar
p495
I533
sVcoca cola
p496
I432
sVnecklace
p497
I545
sVregular
p498
I775
sVpolar bear
p499
I655
sVnothing
p500
I21
sVcollar
p501
I374
sVamerica
p502
I378
sV29
p503
I843
sVrefrigerator
p504
I307
sVhot dog
p505
I104
sVclear
p506
I87
sVnapkin
p507
I776
sVmetal
p508
I96
sVdog
p509
I34
sVstuffed animal
p510
I688
sVred and black
p511
I387
sVtrain station
p512
I426
sVsunset
p513
I450
sVclean
p514
I400
sVpineapple
p515
I868
sVbun
p516
I822
sVwii remote
p517
I246
sVpainting
p518
I540
sVblack and gray
p519
I990
sVwalking
p520
I94
sVkite
p521
I44
sVgold
p522
I247
sVon left
p523
I524
sVgerman
p524
I797
sVstove
p525
I430
sVqueen
p526
I959
sVbikes
p527
I519
sVparked
p528
I741
sVbedroom
p529
I99
sVcorner
p530
I974
sVchicken
p531
I196
sVbus stop
p532
I962
sVground
p533
I122
sVslow
p534
I789
sVsuv
p535
I946
sVscooter
p536
I751
sVnot possible
p537
I293
sV3
p538
I6
sVsugar
p539
I656
sVbush
p540
I931
sVwood
p541
I25
sVblack
p542
I8
sVtennis racquet
p543
I619
sV8
p544
I32
sVcircle
p545
I249
sVrice
p546
I574
sVrectangle
p547
I225
sV?
p548
I943
sVplate
p549
I130
sVtiles
p550
I696
sVsunglasses
p551
I263
sVwatching
p552
I471
sVchicago
p553
I831
sVhonda
p554
I548
sVwatch
p555
I309
sVstripes
p556
I176
sVbear
p557
I82
sVlaying down
p558
I517
sVdry
p559
I665
sVb
p560
I800
sVbatter
p561
I437
sVwords
p562
I898
sVwedding
p563
I233
sVstriped
p564
I291
sVno one
p565
I185
sVon desk
p566
I649
sVgray
p567
I16
sVbat
p568
I138
sVcatcher
p569
I330
sVbar
p570
I773
sVmotorcycles
p571
I337
sVleather
p572
I356
sVtabby
p573
I547
sVmorning
p574
I232
sVbag
p575
I287
sVgloves
p576
I496
sVred and yellow
p577
I467
sVriver
p578
I416
sVsteam
p579
I608
sVyellow and black
p580
I554
sVfishing
p581
I590
sVart
p582
I876
sVmutt
p583
I838
sVpan
p584
I726
sVhardwood
p585
I749
sVstation
p586
I769
sVblue and red
p587
I748
sVfrench fries
p588
I883
sVcomputer
p589
I171
sVskateboarding
p590
I41
sVracket
p591
I274
sVtransportation
p592
I976
sVpillows
p593
I961
sVfire hydrant
p594
I280
sVgreen and white
p595
I398
sVwire
p596
I447
sVstrawberry
p597
I535
sVlots
p598
I492
sVpictures
p599
I526
sVaway
p600
I473
sVgranite
p601
I632
sVwetsuit
p602
I277
sVdodgers
p603
I897
sVoutside
p604
I85
sVcherry
p605
I999
sVclosed
p606
I204
sVtyping
p607
I970
sVneither
p608
I270
sVreading
p609
I406
sVsurfboards
p610
I424
sVcurtains
p611
I887
sVpants
p612
I664
sVeurope
p613
I991
sVblack and red
p614
I730
sVliving room
p615
I56
sVreflection
p616
I807
sVblue and yellow
p617
I488
sVcutting board
p618
I616
sVplanes
p619
I600
sVtoothbrush
p620
I187
sVhill
p621
I849
sVplaying game
p622
I676
sVno
p623
I1
sVpepsi
p624
I495
sVpolice
p625
I377
sVshoe
p626
I912
sVblack and white
p627
I42
sVkitchen
p628
I28
sVboth
p629
I260
sVc
p630
I902
sVstore
p631
I520
sVcow
p632
I83
sVrestaurant
p633
I242
sVmany
p634
I93
sVcup
p635
I412
sVramp
p636
I686
sVroman
p637
I942
sVremote control
p638
I885
sVrose
p639
I392
sVrail
p640
I945
sVchina
p641
I359
sVolives
p642
I564
sVpassenger
p643
I393
sVcolor
p644
I323
sVpot
p645
I782
sVjeans
p646
I298
sVwalk
p647
I788
sV60
p648
I636
sVpole
p649
I335
sVtowels
p650
I756
sVchurch
p651
I338
sVpolo
p652
I659
sVtable
p653
I62
sVblonde
p654
I150
sVdesktop
p655
I757
sVgrazing
p656
I316
sVboat
p657
I128
sVin water
p658
I510
sVsailboat
p659
I926
sVbathroom
p660
I27
sVmotorbike
p661
I881
sVbeef
p662
I438
sVhay
p663
I305
sVwest
p664
I583
sVparsley
p665
I836
sVbeer
p666
I119
sVon beach
p667
I952
sVpeppers
p668
I527
sVcurtain
p669
I650
sVbrick
p670
I95
sVstaring
p671
I979
sVto right
p672
I604
sVempty
p673
I891
sVkites
p674
I121
sVresting
p675
I376
sVorange and white
p676
I571
sVmodern
p677
I562
sVrelaxing
p678
I819
sVfire
p679
I651
sVone on left
p680
I859
sVnot sure
p681
I149
sVgas
p682
I341
sVpie
p683
I828
sVcontroller
p684
I391
sVkids
p685
I963
sVbmw
p686
I705
sVchild
p687
I295
sV3 feet
p688
I855
sVcutting cake
p689
I740
sVplants
p690
I602
sVmulti
p691
I698
sVplaid
p692
I261
sVfur
p693
I830
sVorange juice
p694
I628
sVjuice
p695
I622
sVsolid
p696
I327
sVski
p697
I388
sVstraight
p698
I405
sVwhite and brown
p699
I568
sVair
p700
I368
sVrope
p701
I475
sVski lift
p702
I930
sVbaseball bat
p703
I415
sVwild
p704
I443
sVbalance
p705
I995
sV31
p706
I982
sVcart
p707
I694
sVstop
p708
I59
sVpurse
p709
I461
sVon street
p710
I754
sVsleeping
p711
I219
sVdecoration
p712
I569
sVmiddle
p713
I343
sVgood
p714
I534
sVcone
p715
I993
sV34
p716
I771
sVmouse
p717
I342
sVhelmet
p718
I129
sVin air
p719
I434
sVitaly
p720
I857
sVshirt
p721
I284
sVnike
p722
I144
sVskate park
p723
I596
sVbowl
p724
I308
sVcross
p725
I611
sVplaying baseball
p726
I618
sVwhite and green
p727
I813
sV9
p728
I50
sVparty
p729
I781
sVseveral
p730
I303
sVday
p731
I140
sVvegetable
p732
I764
sVball
p733
I134
sVdusk
p734
I516
sVdrink
p735
I712
sVseagulls
p736
I766
sVrainy
p737
I408
sVcement
p738
I318
sVhand
p739
I352
sVwhite and red
p740
I379
sVrunning
p741
I417
sVfruit
p742
I183
sVmoving
p743
I633
sVa
p744
I723
sVstatue
p745
I934
sVsoccer ball
p746
I643
sVnew york
p747
I355
sVkia
p748
I785
sVsandals
p749
I385
sVbroccoli
p750
I54
sVkid
p751
I917
sVbutter
p752
I871
sVoff
p753
I345
sVsurfboard
p754
I52
sVyellow and green
p755
I927
sVdock
p756
I847
sVovercast
p757
I188
sVgerman shepherd
p758
I967
sVocean
p759
I163
sVperson
p760
I180
sVcutting
p761
I719
sVhot dogs
p762
I373
sVenglish
p763
I157
sVleft
p764
I24
sVsummer
p765
I106
sVoutdoor
p766
I845
sVbananas
p767
I110
sV42
p768
I957
sVlaptop
p769
I84
sVhalf
p770
I880
sVin field
p771
I955
sVgoggles
p772
I493
sVon ground
p773
I463
sVhuman
p774
I485
sVbehind
p775
I621
sVoctagon
p776
I560
sVyes
p777
I2
sVcouch
p778
I161
sVdoughnut
p779
I439
sVat camera
p780
I973
sVpolar
p781
I761
sVham
p782
I555
sVroses
p783
I399
sVin front
p784
I832
sVflying kite
p785
I200
sVstainless steel
p786
I631
sVlighthouse
p787
I884
sVsky
p788
I231
sVlake
p789
I366
sVbench
p790
I101
sVwall
p791
I132
sVn
p792
I853
sV4
p793
I11
sVwet
p794
I774
sVeast
p795
I509
sVhat
p796
I73
sVreal
p797
I313
sVbig
p798
I567
sVskateboards
p799
I670
sVbowling
p800
I909
sVfridge
p801
I431
sVdark
p802
I624
sVpossibly
p803
I638
sVgame
p804
I601
sVtraffic
p805
I821
sVprivate
p806
I919
sVbackground
p807
I365
sVdesk
p808
I238
sVshadow
p809
I401
sVlady
p810
I731
sVbrown and black
p811
I933
sVteddy bears
p812
I998
sVtoyota
p813
I728
sVtowel
p814
I289
sVonion
p815
I892
sV55
p816
I734
sVsofa
p817
I640
sVgrizzly
p818
I983
sVbracelet
p819
I668
sV50
p820
I211
sVglove
p821
I369
sVsoap
p822
I794
sVchairs
p823
I790
sVpavement
p824
I801
sVt
p825
I947
sVnight
p826
I105
sVtower
p827
I507
sVitalian
p828
I570
sVright
p829
I23
sVold
p830
I193
sVschool
p831
I542
sVpeople
p832
I136
sVspring
p833
I223
sVfake
p834
I677
sVback
p835
I444
sVlibrary
p836
I986
sVhair
p837
I292
sVoval
p838
I502
sVcan't tell
p839
I195
sVdining room
p840
I541
sVpalm
p841
I257
sVcandy
p842
I968
sVblue and white
p843
I127
sVmirror
p844
I222
sVhome
p845
I226
sVdaytime
p846
I208
sVplates
p847
I954
sVcandles
p848
I684
sVbottom
p849
I575
sVpurple
p850
I58
sVnoon
p851
I271
sVmicrowave
p852
I278
sVfedex
p853
I879
sVno idea
p854
I410
sVpen
p855
I742
sVsneakers
p856
I420
sVskateboarder
p857
I778
sVchristmas
p858
I181
sVknife
p859
I153
sVbasil
p860
I815
sVturkey
p861
I546
sVpepper
p862
I682
sVeating
p863
I66
sVbusiness
p864
I850
sVcorn
p865
I886
sVclay
p866
I609
sVrug
p867
I404
sVnowhere
p868
I268
sVpasta
p869
I685
sVkite flying
p870
I403
sVon
p871
I275
sVstone
p872
I221
sVblack white
p873
I795
sVcowboy
p874
I896
sVtray
p875
I697
sVmcdonald's
p876
I768
sVdinner
p877
I252
sVbeans
p878
I860
sVafternoon
p879
I168
sVgermany
p880
I872
sVroad
p881
I240
sVswimming
p882
I557
sVowl
p883
I910
sVstop sign
p884
I468
sVpoodle
p885
I922
sVdown
p886
I111
sVhandle
p887
I992
sVbrush
p888
I799
sVfemale
p889
I88
sVdownhill
p890
I504
sVparade
p891
I840
sVracquet
p892
I818
sVfast
p893
I948
sVvan
p894
I515
sVfabric
p895
I924
sVvegetables
p896
I267
sVtennis
p897
I18
sVdunkin donuts
p898
I893
sVlong
p899
I397
sVpaddle
p900
I841
sVcannot tell
p901
I586
sVcats
p902
I669
sVlow
p903
I703
sVlot
p904
I167
sVon table
p905
I228
sVforward
p906
I329
sVkiting
p907
I996
sVhappy
p908
I236
sVfork
p909
I117
sVmountains
p910
I244
sVhead
p911
I512
sVmedium
p912
I858
sVnorth
p913
I482
sVon floor
p914
I746
sVcheckered
p915
I465
sVbus
p916
I74
sVcoke
p917
I532
sVpitcher
p918
I429
sVlanding
p919
I484
sVford
p920
I474
sVt-shirt
p921
I988
sVcloth
p922
I561
sVstrawberries
p923
I543
sVtennis court
p924
I451
sVdelta
p925
I501
sVcrane
p926
I890
sVcalico
p927
I798
sVbaseball cap
p928
I950
sVinside
p929
I239
sVsamsung
p930
I550
sVfries
p931
I587
sVup
p932
I118
sVus
p933
I710
sVwindows
p934
I382
sVcarriage
p935
I700
sVcatching
p936
I637
sVdirty
p937
I592
sVsuitcase
p938
I166
sVcake
p939
I51
sVwine glass
p940
I747
sVgrass
p941
I36
sVskating
p942
I390
sVtoilet
p943
I177
sVnighttime
p944
I595
sVumpire
p945
I411
sVtennis shoes
p946
I802
sVmaroon
p947
I578
sVriding
p948
I448
sVpink and white
p949
I866
sVflying kites
p950
I558
sVlight blue
p951
I725
sVface
p952
I691
sVcream
p953
I383
sVrainbow
p954
I466
sVsmiling
p955
I363
sVmaybe
p956
I81
sVlemon
p957
I425
sVpeach
p958
I825
sVfloor
p959
I162
sVred and white
p960
I126
sV44
p961
I977
sV45
p962
I762
sVoak
p963
I311
sV40
p964
I333
sVfield
p965
I214
sVgreen and yellow
p966
I679
sVbook
p967
I314
sV5
p968
I15
sVbranch
p969
I483
sVtie
p970
I175
sVtrash
p971
I652
sVponytail
p972
I528
sVnice
p973
I975
sVpicture
p974
I285
sVfrisbee
p975
I20
sVstar
p976
I551
sVmustard
p977
I552
sVleft side
p978
I971
sVnot very
p979
I925
sVfootball
p980
I579
sVlight brown
p981
I835
sVred sox
p982
I854
sVunanswerable
p983
I935
sVdesert
p984
I620
sVbuilding
p985
I212
sVcoat
p986
I899
sVremote
p987
I218
sVglass
p988
I131
sV2 feet
p989
I820
sVblack and yellow
p990
I907
sVunclear
p991
I837
sVjacket
p992
I433
sVwarm
p993
I395
sVtaking picture
p994
I530
sVparking meter
p995
I591
sVyamaha
p996
I915
sVrural
p997
I827
sVdon't know
p998
I178
sVstick
p999
I687
s.