(dp0
Vraining
p1
I563
sVhats
p2
I661
sVyellow
p3
I14
sVwoods
p4
I980
sVsleep
p5
I1021
sVasian
p6
I273
sVrailing
p7
I1018
sVtrolley
p8
I1784
sVfeeding
p9
I1758
sVpointing
p10
I1431
sVelectricity
p11
I607
sVswan
p12
I779
sVbike
p13
I135
sVflip flops
p14
I745
sVblanket
p15
I346
sVdell
p16
I237
sVvase
p17
I320
sVhelmet
p18
I129
sVhome plate
p19
I1473
sVfireplace
p20
I960
sVschool
p21
I542
sVbaking
p22
I1768
sVparrot
p23
I824
sVwooden
p24
I498
sVclothes
p25
I357
sVcan't see
p26
I812
sVbicycle
p27
I215
sVquilt
p28
I1956
sVtired
p29
I1067
sVphones
p30
I869
sVhanging
p31
I1655
sVbacon
p32
I612
sVjapanese
p33
I662
sVchef
p34
I941
sVstreet
p35
I141
sVblue, white
p36
I1112
sVn
p37
I853
sVpanda
p38
I1222
sVblue
p39
I9
sVstraight ahead
p40
I1907
sVat camera
p41
I973
sVcooking
p42
I243
sVtow truck
p43
I1616
sVasia
p44
I763
sVlights
p45
I336
sVabove
p46
I667
sVnew
p47
I556
sVnet
p48
I913
sVhelmets
p49
I641
sVpancakes
p50
I1211
sVmen
p51
I539
sVhundreds
p52
I1487
sVprotection
p53
I738
sVchina
p54
I359
sVcart
p55
I694
sV100
p56
I255
sVcardboard
p57
I1014
sVmozzarella
p58
I823
sVdry
p59
I665
sVkids
p60
I963
sVluggage
p61
I264
sVleaves
p62
I230
sVparis
p63
I1444
sVsmoke
p64
I582
sVmilitary
p65
I805
sVgolden
p66
I1858
sVstraw
p67
I713
sVstrap
p68
I1797
sVsliced
p69
I1719
sVarmy
p70
I923
sVsweater
p71
I709
sVbrown, white
p72
I1819
sVmusic
p73
I1569
sVcalm
p74
I503
sVpalm trees
p75
I1011
sVdeciduous
p76
I1689
sVwarm
p77
I395
sVadult
p78
I428
sV90
p79
I1767
sVroom
p80
I1339
sVwork
p81
I627
sVroof
p82
I900
sVblack and blue
p83
I1301
sVit's not
p84
I1396
sVflorida
p85
I1434
sVindia
p86
I695
sVbrown and green
p87
I1888
sVhoney
p88
I1906
sVgreen beans
p89
I1131
sVcaution
p90
I1114
sVveggies
p91
I1088
sVmotion
p92
I1823
sVend
p93
I1669
sV4 feet
p94
I1384
sVtravel
p95
I1224
sVnuts
p96
I1578
sV6 inches
p97
I1740
sVhappy birthday
p98
I1435
sVfar
p99
I1709
sVhot
p100
I441
sVboats
p101
I522
sVgate
p102
I1760
sVbeach
p103
I80
sVpizza
p104
I26
sVgaming
p105
I1491
sVbriefcase
p106
I1898
sVladder
p107
I1291
sVlab
p108
I529
sVjumping
p109
I435
sVcell phone
p110
I116
sVlap
p111
I1401
sVfedora
p112
I1234
sVman on right
p113
I1284
sVin bowl
p114
I1203
sVharley
p115
I692
sVtulip
p116
I1371
sVcheckerboard
p117
I1770
sVgreen
p118
I12
sVscarf
p119
I491
sV1 foot
p120
I1177
sVfirst
p121
I1016
sVwind
p122
I598
sVwine
p123
I86
sVoffice
p124
I248
sVcheese
p125
I143
sVover
p126
I1747
sVlondon
p127
I315
sVoven
p128
I370
sVkeyboard
p129
I340
sVjapan
p130
I599
sVchihuahua
p131
I1667
sV2:00
p132
I1983
sVbackpack
p133
I286
sVmore than 10
p134
I1684
sVavocado
p135
I1452
sVwriting
p136
I1276
sV400
p137
I1932
sV3:15
p138
I1984
sVcoffee
p139
I155
sVtourist
p140
I1908
sVwhite and blue
p141
I319
sVband
p142
I1601
sVgiraffe
p143
I47
sVglazed
p144
I1156
sVsilver
p145
I40
sVbank
p146
I1809
sVbread
p147
I262
sVshadows
p148
I1331
sVbrushing teeth
p149
I402
sVmeat
p150
I414
sVpotatoes
p151
I737
sVwii remotes
p152
I1679
sVl
p153
I1422
sVrocks
p154
I328
sVside of road
p155
I1923
sVarrow
p156
I1593
sVtrash can
p157
I646
sVside
p158
I1049
sVlying down
p159
I1455
sVlogs
p160
I1509
sVmagnets
p161
I1048
sVnavy
p162
I717
sVlogo
p163
I1034
sVskate park
p164
I596
sVdriving
p165
I758
sVdiesel
p166
I1516
sVgreen and orange
p167
I1993
sVsoftball
p168
I783
sVblue and green
p169
I904
sVfree
p170
I1567
sVon tower
p171
I1634
sVgrapes
p172
I672
sVupside down
p173
I1948
sVtree branch
p174
I1885
sVon chair
p175
I1553
sVshelves
p176
I1586
sVsoda
p177
I440
sVmoving
p178
I633
sVmouth
p179
I1614
sV1:10
p180
I1878
sVcleaning
p181
I1013
sVflying kite
p182
I200
sVin street
p183
I1827
sVveggie
p184
I1317
sVon pole
p185
I1494
sVlettuce
p186
I241
sVfire truck
p187
I787
sVscissors
p188
I199
sVtusks
p189
I1630
sVhood
p190
I1359
sVbasketball
p191
I811
sVhydrant
p192
I497
sVspinach
p193
I344
sVtop
p194
I427
sVgirls
p195
I1221
sVblackberry
p196
I1539
sVboating
p197
I1080
sVlegs
p198
I1369
sVdogs
p199
I499
sVkiwi
p200
I1404
sVurban
p201
I597
sVceiling
p202
I724
sVon grass
p203
I894
sVserve
p204
I1143
sVlavender
p205
I1562
sVcereal
p206
I1294
sVboarding
p207
I1763
sVtree
p208
I120
sVfrench fries
p209
I883
sVshower
p210
I842
sViron
p211
I1002
sVman on left
p212
I1352
sVbridge
p213
I380
sVdonkey
p214
I1603
sVgiraffes
p215
I281
sVboston
p216
I863
sVmodern
p217
I562
sVglass
p218
I131
sVtalking
p219
I354
sVcactus
p220
I1750
sVnecktie
p221
I1489
sVperson
p222
I180
sVsnow
p223
I48
sVcircles
p224
I1172
sVgravy
p225
I1838
sVnobody
p226
I460
sVthumb
p227
I1997
sVzebras
p228
I300
sV6 feet
p229
I1385
sVlittle girl
p230
I1978
sVregular
p231
I775
sVpolar bear
p232
I655
sVmetal
p233
I96
sVdog
p234
I34
sVcamo
p235
I1281
sVpineapple
p236
I868
sVqueen
p237
I959
sVnorth america
p238
I1024
sVchandelier
p239
I1207
sVradio
p240
I1946
sVhazy
p241
I1572
sVfork and knife
p242
I844
sVbus stop
p243
I962
sVtoast
p244
I1588
sVmenu
p245
I1893
sVtrain tracks
p246
I1766
sVon right
p247
I505
sVsugar
p248
I656
sVcelery
p249
I1319
sVbush
p250
I931
sVrice
p251
I574
sVgoalie
p252
I1954
sVrectangle
p253
I225
sVplate
p254
I130
sVtiles
p255
I696
sVsunglasses
p256
I263
sVhonda
p257
I548
sVwatch
p258
I309
sVtelevision
p259
I494
sVcardinals
p260
I1402
sVwatermelon
p261
I1066
sVtiled
p262
I1727
sVwedding
p263
I233
sVon desk
p264
I649
sVbat
p265
I138
sVbar
p266
I773
sVsailing
p267
I1687
sVrowing
p268
I1657
sV2:10
p269
I1861
sVbag
p270
I287
sVbad
p271
I1762
sVcoke
p272
I532
sVgrilled
p273
I1866
sVsteak
p274
I770
sVsteam
p275
I608
sV3:00
p276
I1216
sVfair
p277
I1283
sVt shirt
p278
I1027
sVcattle
p279
I1332
sVnoodles
p280
I1113
sVgame controller
p281
I814
sVlots
p282
I492
sVaway
p283
I473
sVsail
p284
I1121
sVwetsuit
p285
I277
sVblack and silver
p286
I1226
sVmug
p287
I1342
sVlaying down
p288
I517
sVherding
p289
I1781
sVnature
p290
I1537
sVtoothbrush
p291
I187
sVplaying game
p292
I676
sVnews
p293
I1648
sVbehind fence
p294
I1644
sVhills
p295
I1202
sVright one
p296
I1130
sVcow
p297
I83
sVcountry
p298
I861
sVyamaha
p299
I915
sVon bench
p300
I1343
sVremote control
p301
I885
sVthrowing frisbee
p302
I1347
sVcherry
p303
I999
sVtowels
p304
I756
sVblonde
p305
I150
sVgrazing
p306
I316
sVbathroom
p307
I27
sVski slope
p308
I1765
sVbeef
p309
I438
sVskatepark
p310
I1446
sVchrome
p311
I1536
sVon couch
p312
I1375
sVparsley
p313
I836
sVbeer
p314
I119
sVbasil
p315
I815
sVdozens
p316
I1282
sVdots
p317
I1428
sVrelaxing
p318
I819
sVnot sure
p319
I149
sVcoffee table
p320
I1862
sVchild
p321
I295
sVcatch
p322
I1257
sVchili
p323
I1611
sV3 feet
p324
I855
sVair
p325
I368
sVski lift
p326
I930
sVbalance
p327
I995
sVbank of america
p328
I1209
sVcane
p329
I1728
sVmexico
p330
I1175
sVsticker
p331
I1896
sVsushi
p332
I1425
sVplayer
p333
I1706
sVtissue
p334
I1720
sVcone
p335
I993
sVin
p336
I1470
sVseattle
p337
I1735
sVmouse
p338
I342
sVin air
p339
I434
sVbottles
p340
I1467
sVnike
p341
I144
sVtoaster
p342
I1341
sVwhite and green
p343
I813
sVvegetable
p344
I764
sVplates
p345
I954
sVseveral
p346
I303
sVcouple
p347
I1718
sVwheel
p348
I1959
sVleft one
p349
I1072
sVjungle
p350
I1671
sVrail
p351
I945
sVrain
p352
I332
sVhand
p353
I352
sVsoccer ball
p354
I643
sVkia
p355
I785
sVkid
p356
I917
sVbutter
p357
I871
sVocean
p358
I163
sVmother
p359
I1776
sVhearts
p360
I1584
sVleft
p361
I24
sVamerican flag
p362
I1652
sVbrown bear
p363
I1989
sVphoto
p364
I1129
sVlaptop
p365
I84
sVgoggles
p366
I493
sVhuman
p367
I485
sVyes
p368
I2
sVadidas
p369
I299
sVsunflower
p370
I1335
sVelm
p371
I1097
sVin front
p372
I832
sVphotographer
p373
I409
sVhay
p374
I305
sVmain street
p375
I1969
sVboard
p376
I559
sVeast
p377
I509
sVhat
p378
I73
sVcoffee maker
p379
I1926
sVturquoise
p380
I1068
sVski pole
p381
I1144
sVwii controllers
p382
I1650
sVpossibly
p383
I638
sVboxes
p384
I1057
sVboxer
p385
I1387
sVbackground
p386
I365
sVshadow
p387
I401
sV6:00
p388
I1778
sV12:30
p389
I1635
sVteddy bears
p390
I998
sV55
p391
I734
sVvisor
p392
I966
sVgrizzly
p393
I983
sV51
p394
I1378
sV50
p395
I211
sV53
p396
I1739
sV52
p397
I1420
sVpavement
p398
I801
sVsteps
p399
I1497
sVnight
p400
I105
sVantique
p401
I1681
sVbutterfly
p402
I1030
sVright
p403
I23
sVold
p404
I193
sVpeople
p405
I136
sVkitesurfing
p406
I1551
sVcrown
p407
I1705
sVdead
p408
I1662
sVplaying soccer
p409
I1520
sVdining room
p410
I541
sVxbox
p411
I1721
sVbottom
p412
I575
sVpurple
p413
I58
sVcomputer screen
p414
I1904
sVice
p415
I1037
sVfog
p416
I1678
sV3:30
p417
I1799
sVskateboarder
p418
I778
sVchristmas
p419
I181
sVcord
p420
I1549
sVkhaki
p421
I1124
sVcorn
p422
I886
sVpost
p423
I1164
sVdalmatian
p424
I1486
sVbenches
p425
I1749
sVcowboy
p426
I896
sVo
p427
I1058
sVblack bear
p428
I1453
sVdinner
p429
I252
sVafternoon
p430
I168
sVoctopus
p431
I1955
sVhospital
p432
I1118
sVselfie
p433
I1161
sVfern
p434
I1605
sVdown
p435
I111
sVpetting
p436
I1824
sVcones
p437
I1443
sVpalm tree
p438
I1159
sVfabric
p439
I924
sVflying
p440
I381
sVsunlight
p441
I810
sVvirgin
p442
I1538
sVwhite and yellow
p443
I1069
sVkiting
p444
I996
sVhappy
p445
I236
sVfork
p446
I117
sVhead
p447
I512
sVmedium
p448
I858
sVyellow and white
p449
I732
sVsnowy
p450
I1060
sVconverse
p451
I1802
sVlanding
p452
I484
sVford
p453
I474
sVlilies
p454
I1410
sVinside
p455
I239
sV2:25
p456
I1960
sVpassenger
p457
I393
sVumpire
p458
I411
sVcleats
p459
I1201
sVpink and white
p460
I866
sVplaying video game
p461
I972
sVship
p462
I1262
sVlime green
p463
I1882
sVno
p464
I1
sVna
p465
I1191
sVsetting
p466
I1334
sVholding
p467
I1542
sVpapers
p468
I1344
sVtie
p469
I175
sVevergreen
p470
I1307
sVpicture
p471
I285
sVfootball
p472
I579
sVpurple and white
p473
I1929
sVfell
p474
I1670
sVred sox
p475
I854
sVphone
p476
I55
sVjacket
p477
I433
sVtime
p478
I1208
sVfor fun
p479
I1857
sVpeacock
p480
I1672
sVcoach
p481
I1801
sVchain
p482
I944
sVplaying video games
p483
I1253
sVskis
p484
I145
sVskate
p485
I1408
sVdaytime
p486
I208
sVskiing
p487
I35
sVchair
p488
I125
sVtoothpick
p489
I1738
sVmilk
p490
I302
sVdouble decker
p491
I544
sV0
p492
I10
sVbicycles
p493
I729
sVbrushing his teeth
p494
I1757
sVon plate
p495
I457
sVbrown
p496
I13
sVsmartphone
p497
I1411
sVstring
p498
I874
sVkitten
p499
I1223
sVcook
p500
I1134
sVcool
p501
I1490
sVon wall
p502
I454
sVclouds
p503
I227
sVollie
p504
I1810
sVpuppy
p505
I1663
sVcloudy
p506
I115
sVp
p507
I629
sVsubway
p508
I720
sVteal
p509
I660
sVsidewalk
p510
I206
sVround
p511
I165
sVpork
p512
I803
sVsign
p513
I283
sVshirts
p514
I1641
sVrough
p515
I1456
sVdrinks
p516
I1595
sVcargo
p517
I681
sVkite string
p518
I1250
sVuniform
p519
I1499
sVtarmac
p520
I1498
sVfalling
p521
I1320
sVred, white and blue
p522
I1853
sVunsure
p523
I326
sVden
p524
I1388
sVfrench
p525
I721
sVwater
p526
I38
sVbaseball
p527
I19
sVfrosting
p528
I852
sVbox
p529
I348
sVboy
p530
I158
sV3:20
p531
I1808
sVhealthy
p532
I1734
sVbus station
p533
I1880
sVbow
p534
I743
sVbob
p535
I1818
sVpillow
p536
I458
sVlove
p537
I1256
sVshark
p538
I1922
sVuphill
p539
I1147
sVsnowboard
p540
I156
sVfake
p541
I677
sVplaying wii
p542
I253
sVpony
p543
I1649
sVmarket
p544
I706
sVworking
p545
I895
sVwhite, blue
p546
I1717
sVwicker
p547
I1372
sV10:10
p548
I1556
sVfrance
p549
I784
sVgoing
p550
I1078
sViphone
p551
I1064
sVsunflowers
p552
I1692
sVchocolate
p553
I201
sVdowntown
p554
I987
sVriding
p555
I448
sVolive
p556
I1492
sVfly
p557
I1890
sVibm
p558
I1508
sVcar
p559
I112
sVcap
p560
I511
sVin park
p561
I1944
sVcat
p562
I33
sVsoup
p563
I364
sVcan
p564
I1306
sVferry
p565
I1622
sVpickle
p566
I903
sVheart
p567
I469
sVtaking photo
p568
I1660
sVparachute
p569
I1599
sVposing
p570
I362
sVwiimote
p571
I727
sVblack and brown
p572
I1248
sVclothing
p573
I1061
sVbaseball field
p574
I804
sVpink
p575
I29
sVwinter
p576
I71
sVsailboat
p577
I926
sVmagazine
p578
I1731
sVpine
p579
I347
sV1
p580
I4
sVelephant
p581
I57
sVtile
p582
I102
sVmap
p583
I1105
sVmat
p584
I1624
sVmac
p585
I767
sVbirthday
p586
I147
sVtoilet paper
p587
I531
sVwetsuits
p588
I1688
sVvases
p589
I1215
sVfloral
p590
I351
sVcourt
p591
I1132
sVtablecloth
p592
I1380
sVdove
p593
I1792
sVman
p594
I37
sVclassroom
p595
I1528
sVright handed
p596
I1876
sVsurfing
p597
I45
sVnatural
p598
I940
sVneck
p599
I1423
sVliquid
p600
I1917
sVcandles
p601
I684
sVred and blue
p602
I566
sVski poles
p603
I304
sVtruck
p604
I152
sVafrican
p605
I760
sVbasket
p606
I506
sVtall
p607
I635
sVserving
p608
I906
sVshoes
p609
I353
sVpizza cutter
p610
I1266
sVcold
p611
I216
sVstill
p612
I1870
sVbirds
p613
I224
sVpolice
p614
I377
sVmonitor
p615
I997
sVcurly
p616
I1529
sVsmoothie
p617
I1169
sVpolka dot
p618
I1511
sVkayak
p619
I1397
sVplatform
p620
I1389
sVwindow
p621
I220
sVgatorade
p622
I1892
sVfarmer
p623
I1865
sVmain
p624
I1272
sVtexas
p625
I1362
sVapron
p626
I1152
sVtop left
p627
I1814
sVlunch
p628
I317
sVsafari
p629
I1413
sVhalf
p630
I880
sVnot
p631
I1146
sVgreen and brown
p632
I1357
sVbath
p633
I1636
sVketchup
p634
I367
sVwagon
p635
I1122
sVrock
p636
I361
sVsquare
p637
I159
sVelephants
p638
I209
sVgoose
p639
I1505
sVcatching
p640
I637
sVzebra
p641
I89
sVgirl
p642
I139
sVice cream
p643
I593
sVmicrowave
p644
I278
sVcanada
p645
I459
sVliving
p646
I422
sVboogie board
p647
I1462
sVtulips
p648
I699
sVdo not enter
p649
I1236
sVred and gray
p650
I1322
sVair force
p651
I1096
sVlooking
p652
I480
sVsquares
p653
I796
sVeagle
p654
I848
sVdodgers
p655
I897
sVon counter
p656
I777
sVcars
p657
I339
sVparking lot
p658
I538
sV11:55
p659
I1609
sVcalifornia
p660
I759
sVvinyl
p661
I1618
sVheadband
p662
I617
sV12:15
p663
I1807
sVstir fry
p664
I1877
sVheadphones
p665
I680
sVbritish
p666
I1515
sVostrich
p667
I1532
sVchevy
p668
I1713
sVturn
p669
I1982
sVpepperoni
p670
I294
sVswing
p671
I1471
sV1000
p672
I1186
sVpelican
p673
I908
sVtennis
p674
I18
sVbudweiser
p675
I1665
sVwaves
p676
I613
sVlong
p677
I397
sVspanish
p678
I928
sVsouthwest
p679
I1581
sVimpossible
p680
I1845
sVring
p681
I739
sVopen
p682
I164
sVsheep
p683
I72
sVcity
p684
I213
sVlittle
p685
I901
sVsheet
p686
I1707
sV3:55
p687
I1834
sVarch
p688
I1988
sVplastic
p689
I160
sVall of them
p690
I1305
sV2
p691
I3
sVtyping
p692
I970
sVwhite
p693
I5
sVfriend
p694
I1239
sVeyes
p695
I1324
sVon table
p696
I228
sVflowers
p697
I98
sV11
p698
I108
sV10
p699
I39
sV13
p700
I137
sV12
p701
I61
sV15
p702
I103
sV14
p703
I169
sV17
p704
I321
sV16
p705
I202
sV19
p706
I455
sV18
p707
I282
sVnight time
p708
I932
sVr
p709
I1482
sVknives
p710
I1788
sVapples
p711
I245
sVfruits
p712
I985
sVdrywall
p713
I958
sVtractor
p714
I1517
sVbaseball game
p715
I1653
sVcoconut
p716
I1936
sVana
p717
I1366
sVblue white
p718
I1645
sVsad
p719
I791
sVpastry
p720
I1012
sVbreakfast
p721
I207
sVbatting
p722
I630
sVswim trunks
p723
I1829
sVzoo
p724
I184
sVdining
p725
I1041
sVsilver and black
p726
I1600
sVsurf
p727
I626
sV200
p728
I733
sVmultiple
p729
I1676
sVnormal
p730
I978
sVtrack
p731
I1197
sVcheesecake
p732
I1102
sVamerica
p733
I378
sVhitting ball
p734
I1573
sVcloth
p735
I561
sVseafood
p736
I1921
sVnapkin
p737
I776
sVhungry
p738
I1315
sVsunset
p739
I450
sVwii remote
p740
I246
sVsalt
p741
I1391
sVwalking
p742
I94
sVgerman
p743
I797
sVbright
p744
I1503
sVshoe
p745
I912
sVcorner
p746
I974
sVline
p747
I1546
sVground
p748
I122
sVslow
p749
I789
sVtennis player
p750
I1361
sVwood
p751
I25
sVblack
p752
I8
sVtennis racquet
p753
I619
sVblinds
p754
I589
sVwool
p755
I953
sVpumpkin
p756
I1795
sVsuitcases
p757
I1022
sVbarbed wire
p758
I1500
sVremotes
p759
I1996
sValuminum
p760
I1142
sVleather
p761
I356
sVyield
p762
I1521
sVmorning
p763
I232
sVred and yellow
p764
I467
sVpants
p765
I664
sVyellow and black
p766
I554
sV5 years
p767
I1972
sVpicnic
p768
I1764
sVblue and red
p769
I748
sVseat
p770
I1136
sVcheckered
p771
I465
sVparking
p772
I487
sVblack & white
p773
I1109
sVcolgate
p774
I1403
sVbrown and tan
p775
I1769
sVblue and yellow
p776
I488
sVglaze
p777
I1675
sV3
p778
I6
sVdiamonds
p779
I1837
sVreading
p780
I406
sVsurfboards
p781
I424
sVliving room
p782
I56
sVvertical
p783
I1052
sVscreen
p784
I1019
sVguitar
p785
I533
sVjets
p786
I1524
sVtub
p787
I1445
sVat beach
p788
I1934
sVrugby
p789
I1755
sVorange juice
p790
I628
sVmany
p791
I93
sV1:30
p792
I1619
sVrestroom
p793
I1398
sVs
p794
I1026
sVharbor
p795
I1851
sVwheels
p796
I1631
sV12:00
p797
I1206
sV150
p798
I1419
sVbricks
p799
I372
sVpot
p800
I782
sVjeans
p801
I298
sV60
p802
I636
sVtwin
p803
I829
sV65
p804
I1748
sV66
p805
I1871
sVpolo
p806
I659
sVforehand
p807
I1698
sVboat
p808
I128
sVlabrador
p809
I1044
sVturkey
p810
I546
sVolives
p811
I564
sVteddy
p812
I1381
sVwest
p813
I583
sVtropical
p814
I1855
sVhelicopter
p815
I1623
sVto right
p816
I604
sV500
p817
I1300
sVengine
p818
I1170
sVshopping
p819
I1957
sVsquash
p820
I1415
sVwhite and orange
p821
I1193
sVtiger
p822
I1046
sVblue/white
p823
I1963
sVbmw
p824
I705
sVfoggy
p825
I1252
sVcutting cake
p826
I740
sVparasail
p827
I1592
sVcaptivity
p828
I1976
sVpilot
p829
I1430
sVcan't say
p830
I1674
sVnewspaper
p831
I839
sVno dog
p832
I1365
sVvest
p833
I1047
sVcanoe
p834
I1367
sVaqua
p835
I1527
sVpurse
p836
I461
sVtelephone
p837
I1555
sVsleeping
p838
I219
sVmiddle
p839
I343
sVgood
p840
I534
sVstickers
p841
I1406
sVivy
p842
I1928
sVbags
p843
I1004
sVbowl
p844
I308
sVtour
p845
I1998
sVplaying baseball
p846
I618
sVplaster
p847
I1079
sVpan
p848
I726
sVoil
p849
I1330
sVfoam
p850
I1591
sVseagulls
p851
I766
sVrunning
p852
I417
sVfruit
p853
I183
sVstatue
p854
I934
sVclimbing
p855
I1991
sVhummingbird
p856
I1550
sVflip phone
p857
I1733
sVbirthday cake
p858
I1514
sVmulti colored
p859
I1568
sVfloor
p860
I162
sVbottle
p861
I479
sVpitbull
p862
I1092
sVmodel
p863
I1745
sVtaxi
p864
I1275
sVsummer
p865
I106
sVoutdoor
p866
I845
sVin back
p867
I1395
sVkrispy kreme
p868
I1104
sVsnowboarder
p869
I1513
sVrose
p870
I392
sVdesktop
p871
I757
sVbeagle
p872
I1220
sVcolor
p873
I323
sVriding bike
p874
I1686
sV9:30
p875
I1950
sV4
p876
I11
sVskies
p877
I1903
sVskier
p878
I1020
sVreal
p879
I313
sVfridge
p880
I431
sVdark
p881
I624
sVtraffic
p882
I821
sVmom
p883
I1243
sVorange and black
p884
I1274
sVfurniture
p885
I1504
sVtowel
p886
I289
sVnissan
p887
I1598
sVbracelet
p888
I668
sVpole
p889
I335
sVnose
p890
I1302
sVclay
p891
I609
sVtower
p892
I507
sVbow tie
p893
I1287
sVdoll
p894
I1530
sVpacific
p895
I1867
sV68
p896
I1973
sVpasture
p897
I1604
sVpickles
p898
I1429
sVred white and blue
p899
I1212
sVlight brown
p900
I835
sVwristband
p901
I1326
sVnoon
p902
I271
sVmoon
p903
I1552
sVexit
p904
I1559
sVlinoleum
p905
I1119
sVknife
p906
I153
sVwheat
p907
I1205
sVbusiness
p908
I850
sVsurfboard
p909
I52
sVvolkswagen
p910
I1382
sVbroken
p911
I1167
sVkite flying
p912
I403
sVon
p913
I275
sVharley davidson
p914
I989
sVlaminate
p915
I1613
sVcobblestone
p916
I1780
sVjeep
p917
I1171
sVisland
p918
I1846
sVshrimp
p919
I1111
sVstand
p920
I1032
sVtoothpaste
p921
I1182
sVmixed
p922
I1775
sVroad
p923
I240
sVunited states
p924
I453
sVharness
p925
I1103
sVpolka dots
p926
I1481
sVmoped
p927
I1329
sVracquet
p928
I818
sVlog
p929
I1099
sVcats
p930
I669
sVlow
p931
I703
sVstars
p932
I1263
sVpaddle boarding
p933
I1465
sVhard
p934
I1544
sVon floor
p935
I746
sVpitcher
p936
I429
sVcabinet
p937
I715
sVbaseball cap
p938
I950
sVpotato
p939
I1025
sVbucket
p940
I1055
sVstrawberry
p941
I535
sVchristmas tree
p942
I1897
sVdirty
p943
I592
sVsuitcase
p944
I166
sVgrass
p945
I36
sVrust
p946
I1354
sVaa
p947
I1986
sVtoilet
p948
I177
sVcross country
p949
I1138
sVdeer
p950
I1173
sVtennis shoes
p951
I802
sVdeep
p952
I1421
sVbritain
p953
I1327
sVacer
p954
I1787
sVcream
p955
I383
sVcollie
p956
I780
sVcabinets
p957
I1400
sVred and white
p958
I126
sVstorage
p959
I1237
sVrubber
p960
I1812
sVroses
p961
I399
sV5
p962
I15
sVtrash
p963
I652
sVpolar
p964
I761
sVpillows
p965
I961
sVteeth
p966
I1448
sVpear
p967
I1894
sVpeas
p968
I1120
sVwaving
p969
I1777
sV10:20
p970
I1651
sVunanswerable
p971
I935
sVpool
p972
I1495
sValcohol
p973
I1461
sVbuilding
p974
I212
sVlaptops
p975
I1135
sV2009
p976
I1477
sVremote
p977
I218
sVorioles
p978
I1261
sVon water
p979
I1793
sVblack and yellow
p980
I907
sVmask
p981
I1091
sVhusky
p982
I1350
sVfor sale
p983
I1965
sVdon't know
p984
I178
sVall
p985
I704
sVchinese
p986
I234
sVceramic
p987
I419
sVmessy
p988
I1128
sVdark brown
p989
I1230
sVin sky
p990
I1077
sVchildren
p991
I856
sVcarpet
p992
I203
sVapartment
p993
I916
sVtv
p994
I170
sVlaughing
p995
I1724
sVtail
p996
I1190
sVon road
p997
I888
sVone on right
p998
I755
sVsmile
p999
I644
sVriding motorcycle
p1000
I1754
sVcrest
p1001
I1899
sVpicnic table
p1002
I1920
sVwoman
p1003
I65
sVsitting
p1004
I97
sVvery
p1005
I331
sVfan
p1006
I606
sVfall
p1007
I172
sVsony
p1008
I673
sVlaying
p1009
I708
sVlarge
p1010
I456
sVsand
p1011
I124
sVwii controller
p1012
I322
sVsmall
p1013
I259
sVrunway
p1014
I1042
sVcookies
p1015
I964
sVfence
p1016
I146
sVtea
p1017
I514
sVreins
p1018
I1547
sVburger
p1019
I1155
sVdesign
p1020
I1468
sVcasual
p1021
I1254
sVribbon
p1022
I1081
sVsub
p1023
I1554
sVclock
p1024
I190
sVsun
p1025
I229
sVstool
p1026
I1459
sVburgundy
p1027
I1050
sVsuv
p1028
I946
sVracing
p1029
I984
sVpublic
p1030
I663
sVfull
p1031
I585
sVtags
p1032
I1615
sVbowtie
p1033
I1386
sVsurfer
p1034
I752
sVtracks
p1035
I477
sVtrunk
p1036
I1148
sVdirections
p1037
I1602
sVstuffed animals
p1038
I1204
sVahead
p1039
I1933
sVsiamese
p1040
I1031
sVvegetarian
p1041
I1785
sVairport
p1042
I179
sVright hand
p1043
I1432
sVhoodie
p1044
I1507
sVfamily
p1045
I792
sVbuses
p1046
I1449
sVafrica
p1047
I256
sVtalking on cell phone
p1048
I1848
sVcatching frisbee
p1049
I1095
sVindoors
p1050
I442
sVtoys
p1051
I1087
sVdonuts
p1052
I205
sVtexting
p1053
I573
sVpoodle
p1054
I922
sVpitching
p1055
I1280
sV6
p1056
I17
sVhorses
p1057
I133
sVflat
p1058
I1125
sVdiamond
p1059
I716
sVdoor
p1060
I481
sVnavy blue
p1061
I1691
sVfaucet
p1062
I1771
sVflag
p1063
I486
sVstick
p1064
I687
sVlemons
p1065
I1476
sVtown
p1066
I1484
sVgrill
p1067
I1265
sVnone
p1068
I31
sVklm
p1069
I1803
sVred and green
p1070
I806
sVhit ball
p1071
I793
sV4:00
p1072
I1786
sVclock tower
p1073
I653
sVseagull
p1074
I407
sVmale
p1075
I78
sVmarble
p1076
I523
sVgreen and red
p1077
I1071
sVhamburger
p1078
I1308
sVautumn
p1079
I1241
sVnumbers
p1080
I1804
sVcows
p1081
I142
sVpond
p1082
I1580
sVairplane
p1083
I154
sVdress
p1084
I610
sVicing
p1085
I939
sVblueberries
p1086
I1742
sVgreen and black
p1087
I1289
sVnot very
p1088
I925
sVgoat
p1089
I642
sVno parking
p1090
I701
sVplant
p1091
I452
sVsandwich
p1092
I114
sVwater bottle
p1093
I1270
sVplane
p1094
I109
sVcoming
p1095
I1195
sVhorizontal
p1096
I1106
sVa
p1097
I723
sVshort
p1098
I272
sVcoat
p1099
I899
sVvolleyball
p1100
I1039
sVdragon
p1101
I1348
sVcoal
p1102
I1194
sVshore
p1103
I1512
sVchopsticks
p1104
I864
sVshade
p1105
I581
sVhello kitty
p1106
I1174
sVegg
p1107
I878
sVplaying
p1108
I197
sVmexican
p1109
I1210
sVmercedes-benz
p1110
I1937
sVpaper
p1111
I189
sV10:55
p1112
I1886
sVsigns
p1113
I1006
sVbroadway
p1114
I1596
sVsmiling
p1115
I363
sV24
p1116
I349
sV25
p1117
I182
sV26
p1118
I736
sV27
p1119
I588
sV20
p1120
I91
sV21
p1121
I413
sV22
p1122
I389
sV23
p1123
I396
sV28
p1124
I513
sV29
p1125
I843
sVoff white
p1126
I1189
sVsoccer
p1127
I63
sVsauce
p1128
I615
sVevening
p1129
I235
sVfood
p1130
I64
sVhot dogs
p1131
I373
sVtalking on phone
p1132
I446
sVno animal
p1133
I1639
sVcupcake
p1134
I1062
sVstarbucks
p1135
I851
sVweeds
p1136
I1244
sVfoot
p1137
I1288
sVblack, white
p1138
I826
sVkayaking
p1139
I1436
sVswimsuit
p1140
I1447
sVsnowboards
p1141
I1311
sVsomeone
p1142
I1980
sVstopped
p1143
I1563
sVtrailer
p1144
I1426
sVengland
p1145
I371
sVhouse
p1146
I254
sVfish
p1147
I269
sVwhite and gray
p1148
I817
sVgun
p1149
I1850
sVwires
p1150
I1137
sVair canada
p1151
I1035
sVflower
p1152
I290
sVday time
p1153
I1228
sVtennis ball
p1154
I462
sVpower lines
p1155
I1496
sVpigeon
p1156
I833
sVdugout
p1157
I1821
sVrace
p1158
I1585
sVsafety
p1159
I464
sVhill
p1160
I849
sV7
p1161
I30
sVcaucasian
p1162
I647
sVhighway
p1163
I1560
sVhorseback riding
p1164
I1522
sVvery tall
p1165
I1617
sVforeground
p1166
I1141
sVdirt
p1167
I148
sVdriver
p1168
I1668
sVporcelain
p1169
I718
sVpug
p1170
I949
sVhouses
p1171
I1255
sVtoy
p1172
I490
sVcookie
p1173
I1227
sVcanon
p1174
I1826
sVguy
p1175
I1321
sVbushes
p1176
I1029
sVsurfboarding
p1177
I1457
sVdishwasher
p1178
I1295
sVcomputers
p1179
I1333
sVamerican
p1180
I279
sVw
p1181
I674
sVdaisy
p1182
I639
sVsnowboarding
p1183
I76
sVcastle
p1184
I1849
sVcopper
p1185
I1836
sVadvertisement
p1186
I1741
sVwine glasses
p1187
I1695
sVdoughnuts
p1188
I654
sVright side
p1189
I875
sVfeet
p1190
I1083
sVcups
p1191
I1479
sVmaple
p1192
I625
sVhorse
p1193
I43
sVjet
p1194
I537
sVdark blue
p1195
I1178
sVbroccoli
p1196
I54
sVpaint
p1197
I500
sVleash
p1198
I1127
sVstation
p1199
I769
sVwashington dc
p1200
I1712
sVbanana
p1201
I68
sVtennis rackets
p1202
I1247
sVon track
p1203
I1811
sVbehind
p1204
I621
sVhotel
p1205
I384
sVpark
p1206
I210
sVstairs
p1207
I911
sVreflection
p1208
I807
sVking
p1209
I1501
sVb
p1210
I800
sVdouble
p1211
I1566
sVtop right
p1212
I1806
sVemirates
p1213
I1233
sVstore
p1214
I520
sVoutdoors
p1215
I310
sVtoward
p1216
I1304
sVit's raining
p1217
I1699
sVcurtains
p1218
I887
sV10 feet
p1219
I956
sV1:05
p1220
I1833
sVjuice
p1221
I622
sVgraffiti
p1222
I297
sV1:00
p1223
I1832
sVyellow and red
p1224
I683
sVlid
p1225
I1822
sVmountain
p1226
I266
sVwilson
p1227
I423
sVdancing
p1228
I1412
sVpajamas
p1229
I1875
sVcamouflage
p1230
I1187
sVcouch
p1231
I161
sVsandwiches
p1232
I889
sVin grass
p1233
I1290
sVplay
p1234
I1510
sVtowards
p1235
I1117
sVelectric
p1236
I350
sVsingles
p1237
I1642
sVeggs
p1238
I722
sVtrains
p1239
I1571
sVsalmon
p1240
I1285
sVcoca cola
p1241
I432
sVcigarette
p1242
I937
sV75
p1243
I1007
sVbridle
p1244
I1779
sVmoss
p1245
I1543
sV70
p1246
I1133
sVnothing
p1247
I21
sVgray and black
p1248
I1126
sVrefrigerator
p1249
I307
sVwindows
p1250
I382
sVstuffed bear
p1251
I1582
sVclear
p1252
I87
sVtongs
p1253
I1971
sVred and black
p1254
I387
sVtrain station
p1255
I426
sVclean
p1256
I400
sVmicrosoft
p1257
I1638
sVstones
p1258
I1483
sVgolf
p1259
I1943
sVsomewhat
p1260
I1940
sVasphalt
p1261
I577
sVsparrow
p1262
I1040
sVdirt bike
p1263
I1463
sVfreight
p1264
I1349
sVman's
p1265
I1744
sVblender
p1266
I565
sVscooter
p1267
I751
sVchiquita
p1268
I1835
sVmoney
p1269
I1711
sV8
p1270
I32
sVcircle
p1271
I249
sVobama
p1272
I1337
sVgiants
p1273
I1001
sVshepherd
p1274
I1825
sVtriangle
p1275
I418
sVnot here
p1276
I1685
sVsunny
p1277
I67
sVtrees
p1278
I92
sVplay tennis
p1279
I1895
sVbatter
p1280
I437
sVno one
p1281
I185
sVtaking off
p1282
I436
sVcatcher
p1283
I330
sVmotorcycles
p1284
I337
sVtabby
p1285
I547
sVgloves
p1286
I496
sVx
p1287
I1433
sVriver
p1288
I416
sVon ground
p1289
I463
sVart
p1290
I876
sVthrowing
p1291
I1056
sVrolex
p1292
I1938
sVlion
p1293
I1229
sVsea
p1294
I1658
sVtransportation
p1295
I976
sVarm
p1296
I1123
sVbarn
p1297
I1089
sVpictures
p1298
I526
sVprobably
p1299
I1338
sVcrosswalk
p1300
I1033
sVchampagne
p1301
I1661
sV1 year
p1302
I1702
sVeurope
p1303
I991
sVlight green
p1304
I1916
sVdrinking water
p1305
I1626
sVpepsi
p1306
I495
sVbronze
p1307
I1873
sVboth
p1308
I260
sVc
p1309
I902
sVrestaurant
p1310
I242
sVbaseball bat
p1311
I415
sVroman
p1312
I942
sVmulti-colored
p1313
I1625
sV2:35
p1314
I1856
sVlanyard
p1315
I1700
sVcakes
p1316
I1990
sVbell
p1317
I1008
sVsweet
p1318
I1377
sVbadminton
p1319
I1910
sVchurch
p1320
I338
sVgoats
p1321
I1098
sVbelt
p1322
I1336
sVtop hat
p1323
I1813
sVhitting
p1324
I1729
sVpc
p1325
I1279
sVpeppers
p1326
I527
sVbrick
p1327
I95
sVfamily room
p1328
I1751
sVempty
p1329
I891
sVpm
p1330
I1673
sVblankets
p1331
I1962
sVresting
p1332
I376
sVvans
p1333
I1355
sVram
p1334
I1405
sVpassengers
p1335
I1110
sVfire
p1336
I651
sVgas
p1337
I341
sVorange and yellow
p1338
I1789
sVawake
p1339
I1843
sVplants
p1340
I602
sVfur
p1341
I830
sVraw
p1342
I1902
sVsolid
p1343
I327
sVballoons
p1344
I1951
sVstraight
p1345
I405
sVwhite and brown
p1346
I568
sVrope
p1347
I475
sVbikini
p1348
I1217
sV5:00
p1349
I1961
sVfun
p1350
I994
sVbiking
p1351
I1437
sVrobin
p1352
I1656
sVducks
p1353
I614
sVdecoration
p1354
I569
sVleaving
p1355
I1158
sVcoca-cola
p1356
I1015
sVchase
p1357
I1149
sVitaly
p1358
I857
sVshirt
p1359
I284
sVcumulus
p1360
I1085
sV9
p1361
I50
sVcement
p1362
I318
sVwhite and red
p1363
I379
sVm
p1364
I1108
sVcucumber
p1365
I938
sVstripe
p1366
I735
sVsandals
p1367
I385
sVbeanie
p1368
I1000
sVolder
p1369
I1379
sVhorse racing
p1370
I1690
sVconcrete
p1371
I173
sVflags
p1372
I1242
sVy
p1373
I1441
sVyankees
p1374
I1145
sVlistening
p1375
I1730
sV11:20
p1376
I1791
sVpigeons
p1377
I1345
sVin field
p1378
I955
sVlexus
p1379
I1493
sVcut
p1380
I1540
sVtablet
p1381
I1693
sVcup
p1382
I412
sVlady
p1383
I731
sVstainless steel
p1384
I631
sVblack/white
p1385
I1286
sVgrapefruit
p1386
I1541
sVkites
p1387
I121
sVeaster
p1388
I1621
sVaustralia
p1389
I1323
sVradiator
p1390
I1995
sVbig
p1391
I567
sVskateboards
p1392
I670
sVjp morgan
p1393
I1637
sVbib
p1394
I1558
sVgame
p1395
I601
sVprivate
p1396
I919
sVbrown and black
p1397
I933
sVformal
p1398
I1710
sVon tracks
p1399
I1240
sVd
p1400
I1913
sVsemi
p1401
I1840
sVtoyota
p1402
I728
sVglove
p1403
I369
sVfly kite
p1404
I1472
sVbaseball glove
p1405
I1153
sVbamboo
p1406
I1094
sV20 feet
p1407
I1427
sVgoogle
p1408
I1761
sVparade
p1409
I840
sVred white blue
p1410
I1930
sVspring
p1411
I223
sVno man
p1412
I1994
sVsome
p1413
I1392
sVback
p1414
I444
sVpalm
p1415
I257
sVblue and white
p1416
I127
sVmirror
p1417
I222
sVcandle
p1418
I753
sVbritish airways
p1419
I1438
sVno idea
p1420
I410
sVpen
p1421
I742
sVsneakers
p1422
I420
sVgolden retriever
p1423
I1009
sV12:55
p1424
I1632
sVt
p1425
I947
sVon sidewalk
p1426
I918
sVcameraman
p1427
I1704
sVeating
p1428
I66
sV300
p1429
I1225
sVin background
p1430
I1010
sVrug
p1431
I404
sVnowhere
p1432
I268
sVsanta
p1433
I1664
sV5 feet
p1434
I1214
sVblack white
p1435
I795
sVkawasaki
p1436
I1575
sVmcdonald's
p1437
I768
sVyellow and orange
p1438
I1941
sVsurfers
p1439
I1981
sVno cat
p1440
I1859
sVbeans
p1441
I860
sVidk
p1442
I1752
sVgermany
p1443
I872
sVdaisies
p1444
I1023
sVcolorado
p1445
I1912
sVgarbage
p1446
I1005
sVwater skiing
p1447
I594
sVto eat
p1448
I1587
sVrackets
p1449
I1860
sVsports
p1450
I1533
sVdownhill
p1451
I504
sVjockey
p1452
I1968
sVapartments
p1453
I1633
sVdunkin donuts
p1454
I893
sVfast
p1455
I948
sVnintendo wii
p1456
I1115
sVsuit
p1457
I584
sVforward
p1458
I329
sVmountains
p1459
I244
sVhimself
p1460
I1683
sVhawaiian
p1461
I1967
sVposter
p1462
I1847
sVt-shirt
p1463
I988
sVboys
p1464
I1314
sVtennis court
p1465
I451
sVdelta
p1466
I501
sVcrane
p1467
I890
sVcalico
p1468
I798
sVpenguin
p1469
I1817
sVclydesdale
p1470
I1935
sVskull
p1471
I1502
sVfries
p1472
I587
sVup
p1473
I118
sVus
p1474
I710
sVuk
p1475
I1273
sVplanes
p1476
I600
sVwine glass
p1477
I747
sVfried
p1478
I1450
sVgeese
p1479
I1076
sVadults
p1480
I1165
sVnighttime
p1481
I595
sVsingle
p1482
I1298
sVwarning
p1483
I1394
sVcurb
p1484
I1271
sVflying kites
p1485
I558
sVcafe
p1486
I1703
sVcotton
p1487
I572
sVrainbow
p1488
I466
sVrainy
p1489
I408
sVlemon
p1490
I425
sVpeach
p1491
I825
sVpeace
p1492
I1185
sVvalentine's day
p1493
I1756
sVnice
p1494
I975
sVbrushing
p1495
I1454
sVmustard
p1496
I552
sVlufthansa
p1497
I1073
sVwakeboarding
p1498
I1830
sVdesert
p1499
I620
sVin car
p1500
I1545
sVland
p1501
I1045
sVe
p1502
I1082
sVpedestrians
p1503
I1919
sVcooked
p1504
I1565
sV2000
p1505
I1251
sVtaking picture
p1506
I530
sV2007
p1507
I1879
sVparking meter
p1508
I591
sVfresh
p1509
I1245
sVberries
p1510
I1374
sVstroller
p1511
I1726
sVdesserts
p1512
I1874
sVwindy
p1513
I1260
sVgo
p1514
I472
sVgold
p1515
I247
sVyoung
p1516
I375
sVgreen and blue
p1517
I1070
sVcasserole
p1518
I1889
sVfrisbees
p1519
I1759
sVgravel
p1520
I920
sVgarden
p1521
I1627
sVoutside
p1522
I85
sVdessert
p1523
I386
sVwave
p1524
I772
sVnot shown
p1525
I1979
sVspoon
p1526
I192
sVwavy
p1527
I1999
sVdrinking
p1528
I358
sVon building
p1529
I1059
sVasparagus
p1530
I936
sVgray and white
p1531
I576
sV?
p1532
I943
sVrack
p1533
I1168
sVvideo games
p1534
I1643
sVcrow
p1535
I1440
sV350
p1536
I1931
sVham
p1537
I555
sVboots
p1538
I470
sVair france
p1539
I1485
sVjump
p1540
I969
sVvideo
p1541
I1949
sVtraveling
p1542
I1313
sVspaghetti
p1543
I1841
sVsausage
p1544
I605
sVcupcakes
p1545
I1140
sVpower
p1546
I1677
sVchicago
p1547
I831
sVpaddle
p1548
I841
sVwindow sill
p1549
I1383
sVcell
p1550
I1952
sVwaiting
p1551
I666
sVindian
p1552
I750
sVpoles
p1553
I478
sVchain link
p1554
I808
sVbird
p1555
I100
sVleg
p1556
I1881
sVcommercial
p1557
I765
sVsink
p1558
I306
sV39
p1559
I1548
sV38
p1560
I711
sVmetro
p1561
I1782
sV33
p1562
I867
sV32
p1563
I675
sV31
p1564
I982
sV30
p1565
I186
sV37
p1566
I1373
sV36
p1567
I1051
sV35
p1568
I508
sV34
p1569
I771
sVvideo game
p1570
I714
sVapple
p1571
I60
sVcell phones
p1572
I1183
sVwii
p1573
I53
sVhotel room
p1574
I1474
sVriding horse
p1575
I1570
sVmotor
p1576
I1577
sVduck
p1577
I525
sVoval
p1578
I502
sVsan francisco
p1579
I965
sVsinging
p1580
I1939
sVcloud
p1581
I1620
sVlime
p1582
I1351
sVstanding
p1583
I75
sVusa
p1584
I194
sVfrog
p1585
I1612
sVthrow
p1586
I1958
sVfew
p1587
I1363
sVcamera
p1588
I90
sVmidday
p1589
I914
sVplaying frisbee
p1590
I489
sVstone
p1591
I221
sVtrain
p1592
I70
sVrabbit
p1593
I1407
sVbaby
p1594
I296
sVwhite and black
p1595
I250
sVwomen
p1596
I658
sVanimals
p1597
I1028
sVsalad
p1598
I325
sVf
p1599
I1816
sVride
p1600
I1772
sVdonut
p1601
I123
sVcarrot
p1602
I251
sVthin
p1603
I1181
sVshower curtain
p1604
I1659
sVi don't know
p1605
I312
sVhalloween
p1606
I865
sVhigh
p1607
I690
sVtag
p1608
I862
sVhit
p1609
I1597
sVtan
p1610
I49
sVskirt
p1611
I1192
sVlamb
p1612
I1157
sVunited
p1613
I549
sVonions
p1614
I634
sVtoaster oven
p1615
I1716
sVboxing
p1616
I1442
sVlamp
p1617
I421
sVforest
p1618
I648
sVanimal
p1619
I1154
sVbandana
p1620
I882
sVcircular
p1621
I1116
sVbuildings
p1622
I689
sVfarm
p1623
I671
sVstop
p1624
I59
sVwallpaper
p1625
I1831
sVurinal
p1626
I1924
sVties
p1627
I1269
sVcabbage
p1628
I1218
sVhawk
p1629
I1506
sVterrier
p1630
I657
sVtomato
p1631
I276
sVlight
p1632
I217
sVcounter
p1633
I288
sVlines
p1634
I1188
sVbakery
p1635
I834
sVchevrolet
p1636
I1564
sVnecklace
p1637
I545
sVswimming
p1638
I557
sVstuffed animal
p1639
I688
sVmustache
p1640
I1179
sVbathing
p1641
I1478
sVmeter
p1642
I1292
sVspatula
p1643
I1316
sVtaking pictures
p1644
I1458
sVmotorcycle
p1645
I79
sVmutt
p1646
I838
sVhorns
p1647
I1139
sVlg
p1648
I1065
sVrelish
p1649
I1828
sVorange
p1650
I22
sV2016
p1651
I1887
sV2011
p1652
I1213
sV2010
p1653
I1003
sV2013
p1654
I1162
sV2012
p1655
I905
sVdad
p1656
I1863
sVbud light
p1657
I1696
sVnokia
p1658
I809
sVoranges
p1659
I265
sVtoshiba
p1660
I1393
sVdock
p1661
I847
sVcutting
p1662
I719
sVpowdered sugar
p1663
I1794
sValaska
p1664
I1526
sVhands
p1665
I702
sVfront
p1666
I301
sVcage
p1667
I1942
sVday
p1668
I140
sV1:50
p1669
I1583
sVcrossing
p1670
I1714
sVtray
p1671
I697
sVglasses
p1672
I151
sVultimate frisbee
p1673
I1525
sVcross country skiing
p1674
I1590
sVon bed
p1675
I623
sVn/a
p1676
I1084
sVto left
p1677
I645
sVmulticolored
p1678
I1017
sVbooks
p1679
I324
sV80
p1680
I1054
sVout
p1681
I744
sVparasailing
p1682
I921
sVbrown and white
p1683
I258
sVelectronics
p1684
I1905
sVwindsurfing
p1685
I1063
sVred
p1686
I7
sVumbrella
p1687
I77
sVipod
p1688
I1574
sVdoubles
p1689
I1722
sVretriever
p1690
I1640
sVno number
p1691
I1231
sVbackwards
p1692
I1238
sVyard
p1693
I1534
sVg
p1694
I1891
sVskateboard
p1695
I46
sVducati
p1696
I1864
sVproduce
p1697
I1424
sVears
p1698
I1743
sVvegetables
p1699
I267
sVsouth
p1700
I580
sVknife and fork
p1701
I1464
sVtennis racket
p1702
I174
sVowner
p1703
I1246
sVumbrellas
p1704
I394
sVred, white, blue
p1705
I1947
sVmonkey
p1706
I981
sVbears
p1707
I476
sVunknown
p1708
I69
sVpots
p1709
I1093
sVbig ben
p1710
I877
sVnew york
p1711
I355
sVdecorations
p1712
I1953
sVblue and black
p1713
I846
sVbeard
p1714
I786
sVlot
p1715
I167
sVshorts
p1716
I334
sVbulldog
p1717
I870
sVshelf
p1718
I518
sVshallow
p1719
I1293
sVschool bus
p1720
I1267
sVyellow and blue
p1721
I603
sVbranches
p1722
I1800
sVsteel
p1723
I449
sV2:50
p1724
I1732
sVbed
p1725
I107
sVlooking at camera
p1726
I1488
sVmaybe
p1727
I81
sVwheelchair
p1728
I1589
sV54
p1729
I1680
sVcarrots
p1730
I198
sVone way
p1731
I536
sVcurved
p1732
I1927
sVmicrophone
p1733
I1038
sVsprinkles
p1734
I951
sVdishes
p1735
I1264
sVtoo many to count
p1736
I1737
sVbagel
p1737
I1166
sVkorean
p1738
I1901
sVlily
p1739
I1309
sVsoap
p1740
I794
sVkickstand
p1741
I1531
sVlogitech
p1742
I1918
sVsedan
p1743
I1268
sVhot dog
p1744
I104
sVthanksgiving
p1745
I1466
sVface
p1746
I691
sVpipe
p1747
I1753
sVscrambled
p1748
I1868
sVstrawberries
p1749
I543
sVlos angeles
p1750
I1576
sVmovie
p1751
I1746
sVpainting
p1752
I540
sVtowards camera
p1753
I1815
sVblack and gray
p1754
I990
sVteddy bear
p1755
I191
sVwatching tv
p1756
I1074
sVkite
p1757
I44
sVstove
p1758
I430
sVindoor
p1759
I1475
sVbikes
p1760
I519
sVparked
p1761
I741
sVbedroom
p1762
I99
sVchicken
p1763
I196
sVbaseball player
p1764
I1974
sVtire
p1765
I1798
sVmud
p1766
I1370
sVnot possible
p1767
I293
sVtape
p1768
I1460
sVplaying tennis
p1769
I360
sVpiano
p1770
I1353
sVhandle
p1771
I992
sVwatching
p1772
I471
sVphotography
p1773
I1884
sVstripes
p1774
I176
sVbear
p1775
I82
sVcubs
p1776
I1364
sVwords
p1777
I898
sVstriped
p1778
I291
sVchips
p1779
I1075
sVgray
p1780
I16
sVtrucks
p1781
I1694
sVh
p1782
I1966
sVmercedes
p1783
I929
sVamerican airlines
p1784
I1909
sVhardwood
p1785
I749
sVhumans
p1786
I1852
sVroman numerals
p1787
I1259
sVcomputer
p1788
I171
sVskateboarding
p1789
I41
sVracket
p1790
I274
sVgreen and white
p1791
I398
sVwire
p1792
I447
sVamtrak
p1793
I1610
sVcarriage
p1794
I700
sVclosed
p1795
I204
sVneither
p1796
I270
sVred, white
p1797
I1160
sVtent
p1798
I1303
sVblack and red
p1799
I730
sVcauliflower
p1800
I1519
sVcutting board
p1801
I616
sVblack and white
p1802
I42
sVstaring
p1803
I979
sVon top
p1804
I1579
sVon beach
p1805
I952
sVramp
p1806
I686
sVcanopy
p1807
I1964
sVvent
p1808
I1708
sVunclear
p1809
I837
sVgone
p1810
I1606
sVwall
p1811
I132
sVdenim
p1812
I1594
sVwalk
p1813
I788
sVtable
p1814
I62
sVin water
p1815
I510
sVtank top
p1816
I1439
sVmotorbike
p1817
I881
sVtraffic light
p1818
I1312
sVcurtain
p1819
I650
sVkitchen
p1820
I28
sVorange and white
p1821
I571
sVred white
p1822
I1390
sVcommuter
p1823
I1697
sVone on left
p1824
I859
sVairplanes
p1825
I1235
sVcontroller
p1826
I391
sVbull
p1827
I693
sVsmoking
p1828
I1607
sVmulti
p1829
I698
sVplaid
p1830
I261
sVplain
p1831
I521
sVvanilla
p1832
I553
sVrectangular
p1833
I816
sVafrican american
p1834
I1872
sVwild
p1835
I443
sVbathtub
p1836
I1036
sVtoothbrushes
p1837
I1417
sVon street
p1838
I754
sVrooster
p1839
I1970
sVgothic
p1840
I1557
sVswinging
p1841
I1100
sVarabic
p1842
I1399
sVtattoo
p1843
I1196
sVcross
p1844
I611
sVspeaker
p1845
I1414
sVflour
p1846
I1900
sVparty
p1847
I781
sVtomatoes
p1848
I445
sVball
p1849
I134
sVdusk
p1850
I516
sVdrink
p1851
I712
sVoctagon
p1852
I560
sVhair dryer
p1853
I1198
sVcollar
p1854
I374
sVsunrise
p1855
I1854
sVstreet light
p1856
I1773
sVoff
p1857
I345
sVcenter
p1858
I707
sVyellow and green
p1859
I927
sVovercast
p1860
I188
sVgerman shepherd
p1861
I967
sVmen's
p1862
I1701
sVfighting
p1863
I1480
sVleft side
p1864
I971
sVroast beef
p1865
I1629
sVenglish
p1866
I157
sVdrawing
p1867
I1820
sVon left
p1868
I524
sVbananas
p1869
I110
sVsavannah
p1870
I1796
sVoak
p1871
I311
sVdomestic
p1872
I1654
sVarriving
p1873
I1682
sVclocks
p1874
I1977
sVfishing
p1875
I590
sVfire hydrant
p1876
I280
sVblue green
p1877
I1911
sVhappiness
p1878
I1358
sVfield
p1879
I214
sVresidential
p1880
I1666
sVsky
p1881
I231
sVlake
p1882
I366
sVbench
p1883
I101
sVwet
p1884
I774
sVski
p1885
I388
sVstreet sign
p1886
I1043
sVdesk
p1887
I238
sVpropeller
p1888
I1346
sVdoughnut
p1889
I439
sVintersection
p1890
I1774
sVpier
p1891
I1180
sVmotorola
p1892
I1360
sVonion
p1893
I892
sVchairs
p1894
I790
sVsofa
p1895
I640
sVcandy
p1896
I968
sVcontrollers
p1897
I1844
sVgarage
p1898
I1090
sVsoft
p1899
I1328
sVitalian
p1900
I570
sVwhite, black
p1901
I1451
sVlibrary
p1902
I986
sVhair
p1903
I292
sVcan't tell
p1904
I195
sVhome
p1905
I226
sVleaf
p1906
I1184
sVgreen and yellow
p1907
I679
sVkettle
p1908
I1915
sVfedex
p1909
I879
sVon laptop
p1910
I1883
sVearrings
p1911
I1992
sVblurry
p1912
I1249
sVpepper
p1913
I682
sVin middle
p1914
I1561
sVmitt
p1915
I1278
sVbowling
p1916
I909
sVlighthouse
p1917
I884
sVpasta
p1918
I685
sVfluorescent
p1919
I1914
sVnot visible
p1920
I1418
sVsaddle
p1921
I1376
sVrodeo
p1922
I1783
sVseeds
p1923
I1805
sVbeige
p1924
I113
sVblue and gray
p1925
I1053
sVtongue
p1926
I1299
sVpastries
p1927
I1310
sVblack and orange
p1928
I1975
sVowl
p1929
I910
sVletters
p1930
I1296
sVmets
p1931
I1945
sVstop sign
p1932
I468
sVwashington
p1933
I1101
sVsocks
p1934
I1150
sVmushrooms
p1935
I873
sVbrush
p1936
I799
sVfemale
p1937
I88
sVon shelf
p1938
I1297
sVagainst wall
p1939
I1987
sVvan
p1940
I515
sVmuseum
p1941
I1086
sVspots
p1942
I1869
sVsuzuki
p1943
I1340
sVbackhand
p1944
I1416
sVred bull
p1945
I1839
sVivory
p1946
I1723
sVnorth
p1947
I482
sVbus
p1948
I74
sVhp
p1949
I678
sVsweatband
p1950
I1325
sVconstruction
p1951
I1232
sVbun
p1952
I822
sVbookshelf
p1953
I1646
sVeat
p1954
I1163
sV5:40
p1955
I1985
sVsmooth
p1956
I1608
sVflip
p1957
I1469
sVvolvo
p1958
I1925
sVbelow
p1959
I1318
sVpartly cloudy
p1960
I1258
sVcake
p1961
I51
sVdisplay
p1962
I1715
sVskating
p1963
I390
sVtissues
p1964
I1842
sVpie
p1965
I828
sVmaroon
p1966
I578
sVpig
p1967
I1200
sVutensils
p1968
I1523
sVreferee
p1969
I1790
sVlight blue
p1970
I725
sVsweatshirt
p1971
I1736
sVmushroom
p1972
I1199
sV48
p1973
I1356
sV46
p1974
I1535
sV47
p1975
I1518
sV44
p1976
I977
sV45
p1977
I762
sV42
p1978
I957
sV43
p1979
I1277
sV40
p1980
I333
sV41
p1981
I1151
sVbook
p1982
I314
sVoar
p1983
I1725
sVbranch
p1984
I483
sVfinch
p1985
I1219
sVgranite
p1986
I632
sVgas station
p1987
I1647
sVponytail
p1988
I528
sVdresser
p1989
I1368
sVfrisbee
p1990
I20
sVstar
p1991
I551
sVcannot tell
p1992
I586
sVfoil
p1993
I1409
sVjetblue
p1994
I1628
sVnintendo
p1995
I1176
sVfriends
p1996
I1107
sVsamsung
p1997
I550
sV2 feet
p1998
I820
sVrural
p1999
I827
s.