(dp0
Vraining
p1
I563
sVpedestrian crossing
p2
I2535
sVhats
p3
I661
sVyellow
p4
I14
sVprotest
p5
I2514
sVwoods
p6
I980
sVsleep
p7
I1021
sVasian
p8
I273
sVrailing
p9
I1018
sVonly
p10
I2652
sVtrolley
p11
I1784
sVfeeding
p12
I1758
sVpointing
p13
I1431
sVelectricity
p14
I607
sVswan
p15
I779
sVbike
p16
I135
sVunder
p17
I2123
sVflip flops
p18
I745
sVwreath
p19
I2871
sVby window
p20
I2943
sVdeli
p21
I2693
sVblanket
p22
I346
sVdell
p23
I237
sVvase
p24
I320
sVhelmet
p25
I129
sVno clue
p26
I2718
sVhome plate
p27
I1473
sVfireplace
p28
I960
sVblue and pink
p29
I2684
sVschool
p30
I542
sVbaking
p31
I1768
sVparrot
p32
I824
sVwooden
p33
I498
sVformica
p34
I2184
sVups
p35
I2741
sVclothes
p36
I357
sVcan't see
p37
I812
sVbicycle
p38
I215
sVquilt
p39
I1956
sVtired
p40
I1067
sVphones
p41
I869
sVhanging
p42
I1655
sVbacon
p43
I612
sVjapanese
p44
I662
sVchef
p45
I941
sVdish
p46
I2056
sVsecond
p47
I2253
sVstreet
p48
I141
sVblue, white
p49
I1112
sVn
p50
I853
sVpanda
p51
I1222
sVmonster
p52
I2531
sVblue
p53
I9
sVsesame
p54
I2609
sVstraight ahead
p55
I1907
sVat camera
p56
I973
sVcooking
p57
I243
sVtow truck
p58
I1616
sVasia
p59
I763
sVlights
p60
I336
sVabove
p61
I667
sVsnowing
p62
I2051
sVnew
p63
I556
sVnet
p64
I913
sVnot much
p65
I2910
sVdisney
p66
I2419
sVhelmets
p67
I641
sV5:45
p68
I2138
sVpancakes
p69
I1211
sVwakeboard
p70
I2582
sVmen
p71
I539
sVhundreds
p72
I1487
sVon train
p73
I2386
sVprotection
p74
I738
sVchina
p75
I359
sVcart
p76
I694
sVpickup truck
p77
I2737
sVpath
p78
I2590
sV100
p79
I255
sVcardboard
p80
I1014
sV106
p81
I2517
sVmozzarella
p82
I823
sVdry
p83
I665
sVkids
p84
I963
sVluggage
p85
I264
sVleaves
p86
I230
sVhot sauce
p87
I2507
sVparis
p88
I1444
sVin bathroom
p89
I2883
sVgray and blue
p90
I2005
sVsmoke
p91
I582
sVmilitary
p92
I805
sVuniforms
p93
I2410
sVjoshua
p94
I2885
sVgolden
p95
I1858
sVstraw
p96
I713
sVoff-white
p97
I2931
sVstrap
p98
I1797
sVsliced
p99
I1719
sVjackets
p100
I2929
sVon phone
p101
I2186
sVgreen, white
p102
I2567
sVlandscape
p103
I2069
sVstar wars
p104
I2577
sVplow
p105
I2655
sVno fruit
p106
I2279
sVarmy
p107
I923
sValligator
p108
I2631
sVsweater
p109
I709
sVcoins
p110
I2462
sVarms
p111
I2900
sVbrown, white
p112
I1819
sVmusic
p113
I1569
sVcalm
p114
I503
sVriding horses
p115
I2552
sVstrike
p116
I2999
sVdairy
p117
I2288
sVblueberry
p118
I2337
sVcalf
p119
I2395
sVsony ericsson
p120
I2536
sV99
p121
I2287
sVpalm trees
p122
I1011
sVdeciduous
p123
I1689
sVwarm
p124
I395
sVadult
p125
I428
sVsiblings
p126
I2939
sV90
p127
I1767
sVhorse riding
p128
I2618
sVme
p129
I2047
sVroom
p130
I1339
sVmo
p131
I2160
sVwork
p132
I627
sVroof
p133
I900
sVorange and green
p134
I2364
sVblack and blue
p135
I1301
sVmp
p136
I2548
sVplunger
p137
I2328
sVdecorative
p138
I2270
sVit's not
p139
I1396
sVflorida
p140
I1434
sVyellow and gray
p141
I2492
sVindia
p142
I695
sVbrown and green
p143
I1888
sVhoney
p144
I1906
sVgreen beans
p145
I1131
sVcaution
p146
I1114
sVveggies
p147
I1088
sVwoodpecker
p148
I2628
sVmotion
p149
I1823
sVend
p150
I1669
sV4 feet
p151
I1384
sVin suitcase
p152
I2358
sVtravel
p153
I1224
sVnuts
p154
I1578
sV6 inches
p155
I1740
sVhappy birthday
p156
I1435
sVfar
p157
I1709
sVhot
p158
I441
sVgames
p159
I2420
sVboats
p160
I522
sVgate
p161
I1760
sVaudi
p162
I2248
sVbeach
p163
I80
sV7:45
p164
I2352
sVpizza
p165
I26
sVwedding cake
p166
I2412
sVgaming
p167
I1491
sVbriefcase
p168
I1898
sVladder
p169
I1291
sVlab
p170
I529
sVjumping
p171
I435
sVsalsa
p172
I2937
sVcell phone
p173
I116
sVwomen's
p174
I2115
sVlap
p175
I1401
sVfedora
p176
I1234
sVman on right
p177
I1284
sVin bowl
p178
I1203
sVcroissant
p179
I2085
sVharley
p180
I692
sVtulip
p181
I1371
sVcheckerboard
p182
I1770
sVgreen
p183
I12
sVscarf
p184
I491
sV1 foot
p185
I1177
sVfirst
p186
I1016
sVwing
p187
I2985
sVwind
p188
I598
sVwine
p189
I86
sVoffice
p190
I248
sVcheese
p191
I143
sVmuffin
p192
I2039
sVover
p193
I1747
sVlondon
p194
I315
sVoven
p195
I370
sVkeyboard
p196
I340
sVjapan
p197
I599
sVfir
p198
I2290
sVchihuahua
p199
I1667
sVlate afternoon
p200
I2447
sV2:00
p201
I1983
sVplantains
p202
I2888
sVbackpack
p203
I286
sVmore than 10
p204
I1684
sVavocado
p205
I1452
sVwriting
p206
I1276
sV400
p207
I1932
sVsavory
p208
I2914
sV3:15
p209
I1984
sV3:10
p210
I2415
sVswans
p211
I2060
sVcoffee
p212
I155
sVtourist
p213
I1908
sVwhite and blue
p214
I319
sVsafe
p215
I2913
sVone in front
p216
I2362
sVband
p217
I1601
sVmercedes benz
p218
I2159
sVgiraffe
p219
I47
sVglazed
p220
I1156
sVsilver
p221
I40
sVbank
p222
I1809
sVbread
p223
I262
sVshadows
p224
I1331
sVbrushing teeth
p225
I402
sVmeat
p226
I414
sVpotatoes
p227
I737
sVon tray
p228
I2651
sVwii remotes
p229
I1679
sVl
p230
I1422
sVdetroit
p231
I2195
sVrocks
p232
I328
sVside of road
p233
I1923
sVbrown white
p234
I2802
sVarrow
p235
I1593
sVtrash can
p236
I646
sVside
p237
I1049
sVbone
p238
I2140
sVlying down
p239
I1455
sVlogs
p240
I1509
sVsled
p241
I2145
sVwaffle
p242
I2516
sVcelebrating
p243
I2905
sVused
p244
I2757
sVmagnets
p245
I1048
sVnavy
p246
I717
sVlogo
p247
I1034
sVdawn
p248
I2055
sVin vase
p249
I2130
sVenclosure
p250
I2433
sVskate park
p251
I596
sVrv
p252
I2936
sVdriving
p253
I758
sV30 feet
p254
I2299
sVmotel
p255
I2636
sVcameras
p256
I2525
sVdiesel
p257
I1516
sVbathing suit
p258
I2369
sVsliding
p259
I2242
sVgreen and orange
p260
I1993
sV3:50
p261
I2896
sVasleep
p262
I2901
sVturning
p263
I2705
sVsoftball
p264
I783
sVsheetrock
p265
I2112
sVblue and green
p266
I904
sVfree
p267
I1567
sVascending
p268
I2013
sVdark gray
p269
I2107
sVon tower
p270
I1634
sVusing laptop
p271
I2852
sVgrapes
p272
I672
sVchecked
p273
I2054
sVupside down
p274
I1948
sVtree branch
p275
I1885
sVon chair
p276
I1553
sVshelves
p277
I1586
sVatv
p278
I2521
sVfestival
p279
I2481
sVsoda
p280
I440
sVmoving
p281
I633
sVmouth
p282
I1614
sV1:10
p283
I1878
sVcleaning
p284
I1013
sVflying kite
p285
I200
sVin street
p286
I1827
sVveggie
p287
I1317
sVon pole
p288
I1494
sVlettuce
p289
I241
sVchevron
p290
I2396
sVfire truck
p291
I787
sVcomforter
p292
I2479
sVscissors
p293
I199
sVthick
p294
I2061
sVtusks
p295
I1630
sVtuna
p296
I2284
sVhood
p297
I1359
sVbasketball
p298
I811
sVhydrant
p299
I497
sVspinach
p300
I344
sVtop
p301
I427
sVgirls
p302
I1221
sVtow
p303
I2662
sVblackberry
p304
I1539
sVboating
p305
I1080
sVlegs
p306
I1369
sVdogs
p307
I499
sVkiwi
p308
I1404
sVurban
p309
I597
sVceiling
p310
I724
sVon grass
p311
I894
sVfeathers
p312
I2685
sVgym
p313
I2732
sVserve
p314
I1143
sVlavender
p315
I1562
sVblue jay
p316
I2838
sVno left turn
p317
I2385
sVwestern
p318
I2232
sVcereal
p319
I1294
sVboarding
p320
I1763
sVtires
p321
I2334
sVpedestrian
p322
I2572
sVtree
p323
I120
sVfrench fries
p324
I883
sVtourists
p325
I2828
sVshower
p326
I842
sViron
p327
I1002
sVman on left
p328
I1352
sVjoy
p329
I2821
sVpaved
p330
I2550
sVbridge
p331
I380
sVdonkey
p332
I1603
sVvery big
p333
I2919
sVgiraffes
p334
I281
sVboston
p335
I863
sVmodern
p336
I562
sVglass
p337
I131
sVtalking
p338
I354
sVmint
p339
I2214
sValive
p340
I2584
sVcactus
p341
I1750
sVskateboard park
p342
I2641
sVnecktie
p343
I1489
sVperson
p344
I180
sVbleachers
p345
I2004
sVsan diego
p346
I2658
sVsnow
p347
I48
sVchest
p348
I2495
sV101
p349
I2455
sVhigh chair
p350
I2446
sVrider
p351
I2740
sVcircles
p352
I1172
sVgravy
p353
I1838
sVnobody
p354
I460
sVthumb
p355
I1997
sVzebras
p356
I300
sV5 ft
p357
I2897
sV6 feet
p358
I1385
sVvictoria
p359
I2490
sVlittle girl
p360
I1978
sVregular
p361
I775
sVpolar bear
p362
I655
sVmacbook
p363
I2154
sVes
p364
I2152
sVmetal
p365
I96
sVdog
p366
I34
sVcamo
p367
I1281
sVpineapple
p368
I868
sVqueen
p369
I959
sVbirthday party
p370
I2615
sVnorth america
p371
I1024
sVchandelier
p372
I1207
sVradio
p373
I1946
sVhazy
p374
I1572
sVfork and knife
p375
I844
sVbus stop
p376
I962
sVtoast
p377
I1588
sVbusy
p378
I2394
sVmenu
p379
I1893
sVtrain tracks
p380
I1766
sVon right
p381
I505
sVsugar
p382
I656
sVcelery
p383
I1319
sVbush
p384
I931
sVon mountain
p385
I2678
sVrice
p386
I574
sVgoalie
p387
I1954
sVrectangle
p388
I225
sVplate
p389
I130
sVtiles
p390
I696
sVsunglasses
p391
I263
sVcolorful
p392
I2105
sVwide
p393
I2984
sVnew york city
p394
I2175
sVhonda
p395
I548
sVwatch
p396
I309
sVtelevision
p397
I494
sVcardinals
p398
I1402
sVpocket
p399
I2176
sVwatermelon
p400
I1066
sVtiled
p401
I1727
sVcushion
p402
I2238
sVwedding
p403
I233
sVon desk
p404
I649
sVbat
p405
I138
sVbar
p406
I773
sVsailing
p407
I1687
sVgreens
p408
I2404
sVrowing
p409
I1657
sV2:10
p410
I1861
sV2:15
p411
I2072
sVbay
p412
I2670
sVbag
p413
I287
sVbad
p414
I1762
sVcoke
p415
I532
sVgrilled
p416
I1866
sVsteak
p417
I770
sVsteam
p418
I608
sV3:00
p419
I1216
sVin corner
p420
I2374
sV10:05
p421
I2724
sV50 feet
p422
I2474
sVfair
p423
I1283
sVfluffy
p424
I2261
sVt shirt
p425
I1027
sVaway from camera
p426
I2875
sVmariners
p427
I2863
sVpads
p428
I2752
sVhsbc
p429
I2619
sVcattle
p430
I1332
sVnoodles
p431
I1113
sVgame controller
p432
I814
sVbrazil
p433
I2257
sVcat and dog
p434
I2990
sVlots
p435
I492
sVaway
p436
I473
sVsail
p437
I1121
sVthey aren't
p438
I2773
sVartificial
p439
I2542
sVwetsuit
p440
I277
sVblack and silver
p441
I1226
sVmug
p442
I1342
sVolympics
p443
I2449
sVfinger
p444
I2601
sVyogurt
p445
I2180
sVlooking out window
p446
I2425
sVlaying down
p447
I517
sVpine trees
p448
I2952
sVherding
p449
I1781
sVnever
p450
I2384
sVnature
p451
I1537
sVteam
p452
I2580
sVtoothbrush
p453
I187
sVloading
p454
I2676
sVplaying game
p455
I676
sVskull and crossbones
p456
I2754
sVnews
p457
I1648
sVbehind fence
p458
I1644
sVeach other
p459
I2026
sVhills
p460
I1202
sVright one
p461
I1130
sVcow
p462
I83
sVcountry
p463
I861
sVyamaha
p464
I915
sVon bench
p465
I1343
sVbaskets
p466
I2126
sVremote control
p467
I885
sVthrowing frisbee
p468
I1347
sVcherry
p469
I999
sVno hat
p470
I2185
sVsheepdog
p471
I2575
sVbottom left
p472
I2459
sVzebra and giraffe
p473
I2629
sV2nd
p474
I2457
sVholding it
p475
I2015
sVtowels
p476
I756
sVblonde
p477
I150
sVgrazing
p478
I316
sVconference
p479
I2398
sVbathroom
p480
I27
sVski slope
p481
I1765
sVbeef
p482
I438
sVskatepark
p483
I1446
sVchrome
p484
I1536
sVon couch
p485
I1375
sVparsley
p486
I836
sVbeer
p487
I119
sVcherries
p488
I2158
sVstadium
p489
I2079
sVbasil
p490
I815
sVdozens
p491
I1282
sV15 feet
p492
I2193
sVdots
p493
I1428
sVsprite
p494
I2642
sVrelaxing
p495
I819
sVnot sure
p496
I149
sVlift
p497
I2423
sVcoffee table
p498
I1862
sVchild
p499
I295
sVcatch
p500
I1257
sVbunny
p501
I2096
sVchili
p502
I1611
sV3 feet
p503
I855
sVteapot
p504
I2722
sVcolored
p505
I2128
sVorange and blue
p506
I2250
sVtank
p507
I2091
sVblue jeans
p508
I2709
sVfirst base
p509
I2711
sVair
p510
I368
sVinformation
p511
I2765
sVonion rings
p512
I2363
sVski lift
p513
I930
sVlife jacket
p514
I2588
sVstopping
p515
I2166
sVabove toilet
p516
I2598
sVbalance
p517
I995
sVbank of america
p518
I1209
sVcane
p519
I1728
sVmexico
p520
I1175
sVsticker
p521
I1896
sVsushi
p522
I1425
sVplayer
p523
I1706
sVtissue
p524
I1720
sVcone
p525
I993
sVin
p526
I1470
sVseattle
p527
I1735
sVmouse
p528
I342
sVin air
p529
I434
sVbottles
p530
I1467
sVemergency
p531
I2784
sVnike
p532
I144
sVtoaster
p533
I1341
sVgray and red
p534
I2074
sVwhite and green
p535
I813
sVcarnation
p536
I2103
sVvegetable
p537
I764
sVplates
p538
I954
sVseveral
p539
I303
sVcouple
p540
I1718
sVwheel
p541
I1959
sVleft one
p542
I1072
sVbird feeder
p543
I2672
sVbookcase
p544
I2926
sVjungle
p545
I1671
sVrail
p546
I945
sVrain
p547
I332
sVhand
p548
I352
sVgarlic
p549
I2545
sVsoccer ball
p550
I643
sVkia
p551
I785
sVkid
p552
I917
sVbutter
p553
I871
sVcrosstown
p554
I2151
sVocean
p555
I163
sVburgers
p556
I2782
sVmother
p557
I1776
sVfloating
p558
I2260
sVhearts
p559
I1584
sVleft
p560
I24
sVamerican flag
p561
I1652
sVkale
p562
I2088
sVbike rack
p563
I2877
sVbrown bear
p564
I1989
sVphoto
p565
I1129
sVlaptop
p566
I84
sVgoggles
p567
I493
sVhuman
p568
I485
sVyes
p569
I2
sVadidas
p570
I299
sVsunflower
p571
I1335
sVelm
p572
I1097
sVin front
p573
I832
sVphotographer
p574
I409
sVwings
p575
I2627
sVhay
p576
I305
sVmain street
p577
I1969
sVboard
p578
I559
sVeast
p579
I509
sVhat
p580
I73
sVcoffee maker
p581
I1926
sVturquoise
p582
I1068
sVmayo
p583
I2407
sVski pole
p584
I1144
sVwii controllers
p585
I1650
sVpossibly
p586
I638
sVboxes
p587
I1057
sVboxer
p588
I1387
sVdescending
p589
I2418
sVbackground
p590
I365
sVshadow
p591
I401
sVall way
p592
I2220
sV6:00
p593
I1778
sV12:30
p594
I1635
sVteddy bears
p595
I998
sV55
p596
I734
sVvisor
p597
I966
sVgrizzly
p598
I983
sV56
p599
I2116
sV51
p600
I1378
sV50
p601
I211
sV53
p602
I1739
sV52
p603
I1420
sVcooler
p604
I2237
sVpavement
p605
I801
sVmickey mouse
p606
I2100
sVsteps
p607
I1497
sVnight
p608
I105
sVsecurity
p609
I2380
sV57
p610
I2725
sVcirrus
p611
I2104
sVantique
p612
I1681
sVbutterfly
p613
I1030
sVright
p614
I23
sVold
p615
I193
sVpeople
p616
I136
sVkitesurfing
p617
I1551
sVcrown
p618
I1705
sVdead
p619
I1662
sVplaying soccer
p620
I1520
sVdining room
p621
I541
sV2:20
p622
I2381
sVxbox
p623
I1721
sVorchid
p624
I2281
sV10 years
p625
I2018
sVbottom
p626
I575
sVpurple
p627
I58
sVcomputer screen
p628
I1904
sVfox
p629
I2382
sVice
p630
I1037
sVfog
p631
I1678
sV3:30
p632
I1799
sVskateboarder
p633
I778
sVchristmas
p634
I181
sVcord
p635
I1549
sVbehind man
p636
I2671
sVkhaki
p637
I1124
sVk
p638
I2528
sVcorn
p639
I886
sVlamps
p640
I2132
sVpost
p641
I1164
sVdalmatian
p642
I1486
sVbenches
p643
I1749
sVcowboy
p644
I896
sVmeow
p645
I2648
sVo
p646
I1058
sVblack bear
p647
I1453
sVdinner
p648
I252
sVafternoon
p649
I168
sVhorizon
p650
I2860
sVoctopus
p651
I1955
sVhospital
p652
I1118
sVrye
p653
I2591
sVmantle
p654
I2862
sVselfie
p655
I1161
sVfern
p656
I1605
sVdown
p657
I111
sVmagazines
p658
I2109
sVpetting
p659
I1824
sVcones
p660
I1443
sVpalm tree
p661
I1159
sVfabric
p662
I924
sVflying
p663
I381
sVdouble decker bus
p664
I2696
sVsunlight
p665
I810
sVvirgin
p666
I1538
sVdonut shop
p667
I2968
sVtowing
p668
I2201
sVwhite and yellow
p669
I1069
sVoverhead
p670
I2031
sVkiting
p671
I996
sVwar
p672
I2438
sVhappy
p673
I236
sVfork
p674
I117
sVhead
p675
I512
sVmedium
p676
I858
sVyellow and white
p677
I732
sVsnowy
p678
I1060
sVbatman
p679
I2669
sVconverse
p680
I1802
sVlanding
p681
I484
sVford
p682
I474
sVwireless
p683
I2349
sVheat
p684
I2224
sVbottom right
p685
I2168
sVsailboats
p686
I2379
sVlilies
p687
I1410
sVslope
p688
I2916
sVbraves
p689
I2157
sVinside
p690
I239
sV2:25
p691
I1960
sVaverage
p692
I2234
sVpassenger
p693
I393
sVsticks
p694
I2177
sVclassic
p695
I2416
sVumpire
p696
I411
sVcleats
p697
I1201
sVdrive
p698
I2946
sV100 feet
p699
I2219
sVon sign
p700
I2512
sVpink and white
p701
I866
sVplaying video game
p702
I972
sVmuffins
p703
I2227
sVship
p704
I1262
sVlime green
p705
I1882
sVtriangles
p706
I2178
sVno
p707
I1
sVna
p708
I1191
sVny
p709
I2344
sVtin
p710
I2643
sVsetting
p711
I1334
sVholding
p712
I1542
sVpapers
p713
I1344
sVtie
p714
I175
sVroll
p715
I2436
sVwhipped cream
p716
I2689
sVevergreen
p717
I1307
sVpicture
p718
I285
sVthumbs up
p719
I2297
sVhandicap
p720
I2526
sVsurprise
p721
I2578
sVfootball
p722
I579
sVpurple and white
p723
I1929
sVfell
p724
I1670
sVred sox
p725
I854
sVfrisbee golf
p726
I2357
sVyounger
p727
I2082
sV7:35
p728
I2873
sVphone
p729
I55
sVyacht
p730
I2538
sVjacket
p731
I433
sVtime
p732
I1208
sVserious
p733
I2624
sVbackward
p734
I2478
sVfor fun
p735
I1857
sV1st
p736
I2124
sVpeacock
p737
I1672
sVcoach
p738
I1801
sVbroke
p739
I2989
sVchain
p740
I944
sVplaying video games
p741
I1253
sVskis
p742
I145
sVsilverware
p743
I2388
sVhawaii
p744
I2129
sVskate
p745
I1408
sVdaytime
p746
I208
sVskiing
p747
I35
sVchair
p748
I125
sVtoothpick
p749
I1738
sVmilk
p750
I302
sVcompetition
p751
I2839
sVdouble decker
p752
I544
sVgrape
p753
I2045
sVfather
p754
I2844
sVprom
p755
I2657
sV0
p756
I10
sVbicycles
p757
I729
sVtusk
p758
I2961
sVbrushing his teeth
p759
I1757
sVon plate
p760
I457
sVbrown
p761
I13
sVsmartphone
p762
I1411
sVstring
p763
I874
sVgloomy
p764
I2818
sVkitten
p765
I1223
sVcook
p766
I1134
sVthere isn't one
p767
I2918
sVcool
p768
I1490
sVon wall
p769
I454
sVusing phone
p770
I2982
sVclouds
p771
I227
sVpoliceman
p772
I2487
sVollie
p773
I1810
sVpuppy
p774
I1663
sVcloudy
p775
I115
sVox
p776
I2206
sVbikers
p777
I2902
sVp
p778
I629
sVwarmth
p779
I2742
sVsubway
p780
I720
sVteal
p781
I660
sVsteeple
p782
I2034
sVsidewalk
p783
I206
sVdip
p784
I2339
sVround
p785
I165
sV11:00
p786
I2064
sVpork
p787
I803
sVheinz
p788
I2688
sVin sink
p789
I2508
sVrectangles
p790
I2331
sVsign
p791
I283
sV11:45
p792
I2539
sVshirts
p793
I1641
sVrun
p794
I2273
sV12:25
p795
I2775
sVrough
p796
I1456
sV12:20
p797
I2202
sVdrinks
p798
I1595
sVcargo
p799
I681
sVstands
p800
I2113
sVkite string
p801
I1250
sVmall
p802
I2110
sVuniform
p803
I1499
sVtarmac
p804
I1498
sVfalling
p805
I1320
sVin hand
p806
I2076
sVred, white and blue
p807
I1853
sVunsure
p808
I326
sVden
p809
I1388
sVno smoking
p810
I2887
sVmakeup
p811
I2278
sVfrench
p812
I721
sVwater
p813
I38
sV2:30
p814
I2210
sVdon't walk
p815
I2307
sVbaseball
p816
I19
sVfrosting
p817
I852
sVteacher
p818
I2793
sVbox
p819
I348
sVboy
p820
I158
sV3:20
p821
I1808
sVhealthy
p822
I1734
sVbus station
p823
I1880
sVlemonade
p824
I2716
sVbow
p825
I743
sVcinnamon
p826
I2304
sVbob
p827
I1818
sVpillow
p828
I458
sVstew
p829
I2121
sVlove
p830
I1256
sVhiking
p831
I2087
sVjar
p832
I2375
sVshark
p833
I1922
sVred/white
p834
I2679
sVuphill
p835
I1147
sVsnowboard
p836
I156
sVfake
p837
I677
sVplaying wii
p838
I253
sVpony
p839
I1649
sVmarket
p840
I706
sVworking
p841
I895
sVwhite, blue
p842
I1717
sVwicker
p843
I1372
sV10:10
p844
I1556
sVfrance
p845
I784
sVgoing
p846
I1078
sViphone
p847
I1064
sVsunflowers
p848
I1692
sVangels
p849
I2020
sVunreadable
p850
I2664
sVconductor
p851
I2442
sVcountertop
p852
I2306
sVclub
p853
I2043
sVphillies
p854
I2134
sVchocolate
p855
I201
sVdowntown
p856
I987
sVriding
p857
I448
sVolive
p858
I1492
sVrobe
p859
I2498
sVdiner
p860
I2617
sVfly
p861
I1890
sVibm
p862
I1508
sVtokyo
p863
I2080
sVcar
p864
I112
sVcap
p865
I511
sVin park
p866
I1944
sVcat
p867
I33
sVsoup
p868
I364
sVcan
p869
I1306
sVferry
p870
I1622
sVpickle
p871
I903
sVurinals
p872
I2515
sVheart
p873
I469
sVnursing
p874
I2361
sVtaking photo
p875
I1660
sV20 mph
p876
I2964
sVparachute
p877
I1599
sVdrawer
p878
I2289
sVposing
p879
I362
sVoatmeal
p880
I2789
sVwiimote
p881
I727
sVblack and brown
p882
I1248
sVclothing
p883
I1061
sVbaseball field
p884
I804
sVpink
p885
I29
sVwinter
p886
I71
sVsailboat
p887
I926
sVmagazine
p888
I1731
sVpine
p889
I347
sV1
p890
I4
sV7:00
p891
I2392
sVcardinal
p892
I2097
sVskater
p893
I2190
sVelephant
p894
I57
sVtile
p895
I102
sVhouse cat
p896
I2225
sVwood and metal
p897
I2894
sV2 ft
p898
I2922
sVmichigan
p899
I2607
sVmap
p900
I1105
sVmat
p901
I1624
sVhuge
p902
I2527
sVflat screen
p903
I2444
sVon his head
p904
I2327
sVmac
p905
I767
sVbirthday
p906
I147
sVtoilet paper
p907
I531
sVwetsuits
p908
I1688
sVvases
p909
I1215
sVfloral
p910
I351
sVcourt
p911
I1132
sVtablecloth
p912
I1380
sVdove
p913
I1792
sVman
p914
I37
sVclassroom
p915
I1528
sVright handed
p916
I1876
sVsurfing
p917
I45
sVnatural
p918
I940
sVneck
p919
I1423
sVliquid
p920
I1917
sVcandles
p921
I684
sVred and blue
p922
I566
sVplacemat
p923
I2345
sVcorona
p924
I2443
sVski poles
p925
I304
sVtruck
p926
I152
sVafrican
p927
I760
sVbasket
p928
I506
sVtall
p929
I635
sV2 years
p930
I2125
sVbunk
p931
I2523
sVblue team
p932
I2925
sVserving
p933
I906
sVshoes
p934
I353
sVno woman
p935
I2848
sVhaircut
p936
I2587
sVunited states of america
p937
I2706
sVpizza cutter
p938
I1266
sVpitch
p939
I2017
sVcold
p940
I216
sVstill
p941
I1870
sVbirds
p942
I224
sVcola
p943
I2321
sVpolice
p944
I377
sVmonitor
p945
I997
sVcurly
p946
I1529
sVsmoothie
p947
I1169
sVbagels
p948
I2799
sVpolka dot
p949
I1511
sVkayak
p950
I1397
sVunited kingdom
p951
I2093
sVplatform
p952
I1389
sVwindow
p953
I220
sVgatorade
p954
I1892
sVfarmer
p955
I1865
sVmain
p956
I1272
sVtiara
p957
I2981
sVtexas
p958
I1362
sVwhirlpool
p959
I2891
sV87
p960
I2798
sVapron
p961
I1152
sVtop left
p962
I1814
sVlunch
p963
I317
sV1950
p964
I2493
sVsafari
p965
I1413
sVhalf
p966
I880
sVnot
p967
I1146
sVgreen and brown
p968
I1357
sVbath
p969
I1636
sVketchup
p970
I367
sVwagon
p971
I1122
sVname
p972
I2378
sVscooters
p973
I2639
sVrock
p974
I361
sVbats
p975
I2319
sVturtle
p976
I2595
sVsquare
p977
I159
sVelephants
p978
I209
sVgoose
p979
I1505
sVcatching
p980
I637
sVcircus
p981
I2182
sVzebra
p982
I89
sVgirl
p983
I139
sVice cream
p984
I593
sVmicrowave
p985
I278
sVcanada
p986
I459
sVliving
p987
I422
sVcontainer
p988
I2083
sVboogie board
p989
I1462
sV3rd
p990
I2834
sVspace
p991
I2146
sVtulips
p992
I699
sVdo not enter
p993
I1236
sVred and gray
p994
I1322
sVair force
p995
I1096
sVfactory
p996
I2564
sVlooking
p997
I480
sVin room
p998
I2972
sVsquares
p999
I796
sVeagle
p1000
I848
sVdodgers
p1001
I897
sVon counter
p1002
I777
sVcars
p1003
I339
sVparking lot
p1004
I538
sVstanding still
p1005
I2296
sV11:55
p1006
I1609
sVcalifornia
p1007
I759
sVvinyl
p1008
I1618
sV11:50
p1009
I2872
sVmarina
p1010
I2510
sVheadband
p1011
I617
sVfishing boat
p1012
I2712
sV12:15
p1013
I1807
sVhe's not
p1014
I2383
sVpaper towels
p1015
I2976
sVmiddle one
p1016
I2570
sVstir fry
p1017
I1877
sVheadphones
p1018
I680
sVbritish
p1019
I1515
sVostrich
p1020
I1532
sVchevy
p1021
I1713
sVturn
p1022
I1982
sVpepperoni
p1023
I294
sVswing
p1024
I1471
sVturf
p1025
I2209
sV1000
p1026
I1186
sVpelican
p1027
I908
sVtennis
p1028
I18
sV4 ft
p1029
I2923
sVbudweiser
p1030
I1665
sVwaves
p1031
I613
sVcrib
p1032
I2480
sVlong
p1033
I397
sVspanish
p1034
I928
sVsouthwest
p1035
I1581
sVimpossible
p1036
I1845
sVring
p1037
I739
sVopen
p1038
I164
sVsize
p1039
I2165
sVsheep
p1040
I72
sVcity
p1041
I213
sVlittle
p1042
I901
sVsheet
p1043
I1707
sV3:55
p1044
I1834
sVarch
p1045
I1988
sVplastic
p1046
I160
sVall of them
p1047
I1305
sVchecker
p1048
I2065
sV2
p1049
I3
sVstuffed
p1050
I2114
sVtyping
p1051
I970
sVwhite
p1052
I5
sVno clock
p1053
I2975
sVfriend
p1054
I1239
sVeyes
p1055
I1324
sVon table
p1056
I228
sVthai
p1057
I2230
sVflowers
p1058
I98
sVholder
p1059
I2714
sV11
p1060
I108
sV10
p1061
I39
sV13
p1062
I137
sV12
p1063
I61
sV15
p1064
I103
sV14
p1065
I169
sV17
p1066
I321
sV16
p1067
I202
sV19
p1068
I455
sV18
p1069
I282
sVnight time
p1070
I932
sV10:00
p1071
I2063
sVcoats
p1072
I2880
sVvictorian
p1073
I2231
sVr
p1074
I1482
sVknives
p1075
I1788
sVapples
p1076
I245
sVfruits
p1077
I985
sVcollege
p1078
I2729
sVdrywall
p1079
I958
sVrussia
p1080
I2058
sVtractor
p1081
I1517
sVbaseball game
p1082
I1653
sVcoconut
p1083
I1936
sVblue & white
p1084
I2988
sVana
p1085
I1366
sVblue white
p1086
I1645
sVgreyhound
p1087
I2028
sV3:25
p1088
I2351
sVsad
p1089
I791
sVpastry
p1090
I1012
sVsas
p1091
I2659
sVbreakfast
p1092
I207
sVbatting
p1093
I630
sVspeakers
p1094
I2229
sVgreek
p1095
I2421
sVswim trunks
p1096
I1829
sVzoo
p1097
I184
sVdining
p1098
I1041
sVfor safety
p1099
I2763
sVfreezer
p1100
I2858
sVsilver and black
p1101
I1600
sVsurf
p1102
I626
sV200
p1103
I733
sVprinter
p1104
I2283
sVmultiple
p1105
I1676
sVnormal
p1106
I978
sVtrack
p1107
I1197
sVcheesecake
p1108
I1102
sVpuma
p1109
I2701
sVsheets
p1110
I2640
sVamerica
p1111
I378
sVhitting ball
p1112
I1573
sVcloset
p1113
I2338
sVcloth
p1114
I561
sVseafood
p1115
I1921
sVnapkin
p1116
I776
sVhungry
p1117
I1315
sVsunset
p1118
I450
sVprofessional
p1119
I2330
sVwii remote
p1120
I246
sVsalt
p1121
I1391
sVshop
p1122
I2488
sVwalking
p1123
I94
sVceiling fan
p1124
I2944
sVshow
p1125
I2164
sVgerman
p1126
I797
sVpeaches
p1127
I2534
sVupright
p1128
I2665
sVbright
p1129
I1503
sVdandelions
p1130
I2692
sVshoe
p1131
I912
sVcorner
p1132
I974
sVline
p1133
I1546
sVground
p1134
I122
sVslow
p1135
I789
sVabove sink
p1136
I2001
sVstormy
p1137
I2090
sVhit tennis ball
p1138
I2787
sVmiami
p1139
I2649
sVdeck
p1140
I2142
sVgull
p1141
I2764
sVtennis player
p1142
I1361
sV11:05
p1143
I2630
sVwood
p1144
I25
sVblack
p1145
I8
sVhockey
p1146
I2928
sVtennis racquet
p1147
I619
sVblinds
p1148
I589
sVwool
p1149
I953
sVpink and black
p1150
I2551
sVpumpkin
p1151
I1795
sVsuitcases
p1152
I1022
sVbarbed wire
p1153
I1500
sV1 hour
p1154
I2558
sVman and woman
p1155
I2569
sVremotes
p1156
I1996
sVlighter
p1157
I2484
sVfar right
p1158
I2222
sValuminum
p1159
I1142
sVtube
p1160
I2795
sVleather
p1161
I356
sVyield
p1162
I1521
sVmorning
p1163
I232
sVred and yellow
p1164
I467
sVdough
p1165
I2322
sVpants
p1166
I664
sVyellow and black
p1167
I554
sV5 years
p1168
I1972
sVpicnic
p1169
I1764
sVconcert
p1170
I2417
sVblue and red
p1171
I748
sVseat
p1172
I1136
sVcheckered
p1173
I465
sVpersian
p1174
I2228
sVparking
p1175
I487
sVcalendar
p1176
I2269
sVblack & white
p1177
I1109
sVcolgate
p1178
I1403
sVbrown and tan
p1179
I1769
sVblue and yellow
p1180
I488
sVcamping
p1181
I2878
sVglaze
p1182
I1675
sVstop light
p1183
I2333
sVspoons
p1184
I2052
sV3
p1185
I6
sVskyscraper
p1186
I2660
sVdiamonds
p1187
I1837
sVreading
p1188
I406
sVsurfboards
p1189
I424
sVcantaloupe
p1190
I2633
sVliving room
p1191
I56
sVvertical
p1192
I1052
sVscreen
p1193
I1019
sVdome
p1194
I2882
sVguitar
p1195
I533
sVjets
p1196
I1524
sVpens
p1197
I2809
sVtub
p1198
I1445
sVat beach
p1199
I1934
sVrugby
p1200
I1755
sVorange juice
p1201
I628
sVmany
p1202
I93
sV1:30
p1203
I1619
sVrestroom
p1204
I1398
sVs
p1205
I1026
sV4:20
p1206
I2247
sVharbor
p1207
I1851
sVwheels
p1208
I1631
sVranch
p1209
I2366
sVacross street
p1210
I2353
sV12:00
p1211
I1206
sV6:30
p1212
I2776
sV150
p1213
I1419
sVbricks
p1214
I372
sVpot
p1215
I782
sVjeans
p1216
I298
sV60
p1217
I636
sV61
p1218
I2727
sVtwin
p1219
I829
sVwine tasting
p1220
I2348
sV64
p1221
I2286
sV65
p1222
I1748
sV66
p1223
I1871
sVpacifier
p1224
I2216
sVpolo
p1225
I659
sVforehand
p1226
I1698
sVboat
p1227
I128
sVlabrador
p1228
I1044
sVturkey
p1229
I546
sVolives
p1230
I564
sVcycling
p1231
I2616
sVstripped
p1232
I2610
sVteddy
p1233
I1381
sVwest
p1234
I583
sVvacation
p1235
I2556
sVtropical
p1236
I1855
sVspices
p1237
I2576
sVhelicopter
p1238
I1623
sVlacoste
p1239
I2949
sVto right
p1240
I604
sV500
p1241
I1300
sVengine
p1242
I1170
sVdirection
p1243
I2881
sVholding baby
p1244
I2807
sVshopping
p1245
I1957
sVsquash
p1246
I1415
sVwhite and orange
p1247
I1193
sVcity street
p1248
I2305
sVtiger
p1249
I1046
sVphotos
p1250
I2208
sVblue/white
p1251
I1963
sVbmw
p1252
I705
sVfoggy
p1253
I1252
sVskiers
p1254
I2499
sVcutting cake
p1255
I740
sVparasail
p1256
I1592
sVcaptivity
p1257
I1976
sVpilot
p1258
I1430
sVcase
p1259
I2460
sV3:45
p1260
I2540
sVspiderman
p1261
I2703
sVreebok
p1262
I2200
sVtrick
p1263
I2122
sVcan't say
p1264
I1674
sV1:35
p1265
I2494
sVnewspaper
p1266
I839
sVmound
p1267
I2547
sVwax paper
p1268
I2596
sVno dog
p1269
I1365
sVslippers
p1270
I2332
sVvest
p1271
I1047
sVshepard
p1272
I2826
sVcanoe
p1273
I1367
sVaqua
p1274
I1527
sVpurse
p1275
I461
sVtelephone
p1276
I1555
sVsleeping
p1277
I219
sVmiddle
p1278
I343
sVgood
p1279
I534
sVwestjet
p1280
I2941
sVheels
p1281
I2068
sVstickers
p1282
I1406
sVivy
p1283
I1928
sVbags
p1284
I1004
sV10:30
p1285
I2832
sVbowl
p1286
I308
sVtour
p1287
I1998
sVplaying baseball
p1288
I618
sVmacaroni
p1289
I2700
sV5:50
p1290
I2520
sVplaster
p1291
I1079
sVpan
p1292
I726
sVexhaust
p1293
I2947
sVoil
p1294
I1330
sVswiss
p1295
I2579
sVfoam
p1296
I1591
sVseagulls
p1297
I766
sVrunning
p1298
I417
sVfruit
p1299
I183
sVwired
p1300
I2893
sVstatue
p1301
I934
sVclimbing
p1302
I1991
sVcartoon
p1303
I2037
sVhummingbird
p1304
I1550
sVmohawk
p1305
I2360
sVflip phone
p1306
I1733
sVbirthday cake
p1307
I1514
sVmulti colored
p1308
I1568
sVshih tzu
p1309
I2625
sVsideways
p1310
I2254
sVfloor
p1311
I162
sVjersey
p1312
I2884
sVbottle
p1313
I479
sVpitbull
p1314
I1092
sVmodel
p1315
I1745
sVtaxi
p1316
I1275
sVsummer
p1317
I106
sVoutdoor
p1318
I845
sV12:05
p1319
I2504
sVin back
p1320
I1395
sVkrispy kreme
p1321
I1104
sVspeed
p1322
I2255
sVkneeling
p1323
I2733
sVcilantro
p1324
I2879
sVsnowboarder
p1325
I1513
sVrose
p1326
I392
sVdesktop
p1327
I757
sVbeagle
p1328
I1220
sVcolor
p1329
I323
sVriding bike
p1330
I1686
sV9:30
p1331
I1950
sV4
p1332
I11
sVwhite blue
p1333
I2892
sVskies
p1334
I1903
sVskier
p1335
I1020
sVreal
p1336
I313
sV10 ft
p1337
I2796
sVdigital
p1338
I2694
sVfridge
p1339
I431
sVdark
p1340
I624
sVtraffic
p1341
I821
sVmom
p1342
I1243
sVtan and white
p1343
I2771
sVrailroad
p1344
I2792
sVorange and black
p1345
I1274
sVrear
p1346
I2155
sVfurniture
p1347
I1504
sVtowel
p1348
I289
sVnissan
p1349
I1598
sVbracelet
p1350
I668
sVpole
p1351
I335
sVtoilet brush
p1352
I2367
sVnose
p1353
I1302
sVclay
p1354
I609
sVtower
p1355
I507
sVbow tie
p1356
I1287
sVdoll
p1357
I1530
sVpacific
p1358
I1867
sV68
p1359
I1973
sVlobster
p1360
I2846
sVpasture
p1361
I1604
sVpickles
p1362
I1429
sVi can't tell
p1363
I2291
sVred white and blue
p1364
I1212
sVlight brown
p1365
I835
sVwristband
p1366
I1326
sVon side
p1367
I2849
sVcurious
p1368
I2673
sVnoon
p1369
I271
sVmoon
p1370
I1552
sVexit
p1371
I1559
sVforks
p1372
I2027
sVlinoleum
p1373
I1119
sVknife
p1374
I153
sVwelcome
p1375
I2597
sVwheat
p1376
I1205
sVbusiness
p1377
I850
sVsurfboard
p1378
I52
sVvolkswagen
p1379
I1382
sVbroken
p1380
I1167
sVgreat
p1381
I2324
sVthailand
p1382
I2593
sVkite flying
p1383
I403
sVon
p1384
I275
sVharley davidson
p1385
I989
sVlaminate
p1386
I1613
sVcobblestone
p1387
I1780
sVjeep
p1388
I1171
sVisland
p1389
I1846
sVmixer
p1390
I2197
sVshrimp
p1391
I1111
sVstand
p1392
I1032
sVtoothpaste
p1393
I1182
sVmixed
p1394
I1775
sVin bed
p1395
I2750
sVroad
p1396
I240
sVheater
p1397
I2341
sVyorkie
p1398
I2942
sVunited states
p1399
I453
sVearring
p1400
I2117
sVharness
p1401
I1103
sVleaning
p1402
I2406
sVpolka dots
p1403
I1481
sVmoped
p1404
I1329
sVburton
p1405
I2355
sVracquet
p1406
I818
sVlog
p1407
I1099
sVshells
p1408
I2592
sV1:25
p1409
I2987
sV1:20
p1410
I2275
sVcats
p1411
I669
sVlow
p1412
I703
sVstars
p1413
I1263
sV4:30
p1414
I2285
sVpaddle boarding
p1415
I1465
sVhard
p1416
I1544
sVon floor
p1417
I746
sVtraffic lights
p1418
I2612
sVbuggy
p1419
I2095
sVpitcher
p1420
I429
sVcabinet
p1421
I715
sVbowls
p1422
I2522
sVomelet
p1423
I2650
sVwalkway
p1424
I2491
sVnot there
p1425
I2864
sVcard
p1426
I2904
sVeiffel tower
p1427
I2697
sVbaseball cap
p1428
I950
sVpotato
p1429
I1025
sVbucket
p1430
I1055
sVstrawberry
p1431
I535
sVchristmas tree
p1432
I1897
sVdirty
p1433
I592
sVsuitcase
p1434
I166
sVblock sun
p1435
I2903
sVflats
p1436
I2565
sVgrass
p1437
I36
sVrust
p1438
I1354
sVaa
p1439
I1986
sVtoilet
p1440
I177
sV600
p1441
I2813
sVcross country
p1442
I1138
sVdeer
p1443
I1173
sVtennis shoes
p1444
I802
sVdeep
p1445
I1421
sVscratching
p1446
I2938
sVbritain
p1447
I1327
sVacer
p1448
I1787
sVpedestal
p1449
I2207
sVhound
p1450
I2568
sVcream
p1451
I383
sVcollie
p1452
I780
sVcabinets
p1453
I1400
sVverizon
p1454
I2581
sVantenna
p1455
I2393
sVbicycling
p1456
I2682
sVred and white
p1457
I126
sVstorage
p1458
I1237
sVrubber
p1459
I1812
sVroses
p1460
I399
sV5
p1461
I15
sVnot at all
p1462
I2215
sVtrash
p1463
I652
sVpoor
p1464
I2199
sVpolar
p1465
I761
sVpoop
p1466
I2738
sVat table
p1467
I2857
sVpillows
p1468
I961
sVin box
p1469
I2715
sVteeth
p1470
I1448
sVpear
p1471
I1894
sVpeas
p1472
I1120
sVwaving
p1473
I1777
sV10:20
p1474
I1651
sVbrass
p1475
I2801
sVunanswerable
p1476
I935
sVpool
p1477
I1495
sValcohol
p1478
I1461
sVbuilding
p1479
I212
sVlaptops
p1480
I1135
sV2009
p1481
I1477
sVremote
p1482
I218
sVorioles
p1483
I1261
sVon water
p1484
I1793
sVblack and yellow
p1485
I907
sVmask
p1486
I1091
sVvines
p1487
I2537
sVhello
p1488
I2749
sVhusky
p1489
I1350
sVfor sale
p1490
I1965
sVdark green
p1491
I2373
sVdon't know
p1492
I178
sVall
p1493
I704
sVmotocross
p1494
I2310
sVlace
p1495
I2325
sVchinese
p1496
I234
sVceramic
p1497
I419
sVdisc
p1498
I2841
sVparmesan
p1499
I2637
sVmessy
p1500
I1128
sVdark brown
p1501
I1230
sVin sky
p1502
I1077
sVchildren
p1503
I856
sVcarpet
p1504
I203
sVposing for picture
p1505
I2329
sVapartment
p1506
I916
sV2 people
p1507
I2833
sVred, yellow
p1508
I2912
sVtv
p1509
I170
sVlaughing
p1510
I1724
sVtail
p1511
I1190
sVon road
p1512
I888
sVone on right
p1513
I755
sVsmile
p1514
I644
sVriding motorcycle
p1515
I1754
sVcrest
p1516
I1899
sVpicnic table
p1517
I1920
sVwoman
p1518
I65
sVsitting
p1519
I97
sVvery
p1520
I331
sVslow down
p1521
I2554
sVwhite, red
p1522
I2471
sVfan
p1523
I606
sVfall
p1524
I172
sVsony
p1525
I673
sVcan't read it
p1526
I2432
sVgrilled cheese
p1527
I2994
sVwashing
p1528
I2390
sVlaying
p1529
I708
sVge
p1530
I2323
sVyour best guess
p1531
I2921
sVlarge
p1532
I456
sVdinosaur
p1533
I2183
sVsand
p1534
I124
sV2 hours
p1535
I2194
sVwii controller
p1536
I322
sV9:20
p1537
I2475
sVsmall
p1538
I259
sVearbuds
p1539
I2970
sVrunway
p1540
I1042
sVbraid
p1541
I2800
sVcookies
p1542
I964
sVfence
p1543
I146
sVtea
p1544
I514
sVskin
p1545
I2469
sVreins
p1546
I1547
sV193
p1547
I2986
sVburger
p1548
I1155
sVdesign
p1549
I1468
sVfast food
p1550
I2173
sVcasual
p1551
I1254
sVribbon
p1552
I1081
sVsub
p1553
I1554
sVclock
p1554
I190
sVsun
p1555
I229
sVstool
p1556
I1459
sVanniversary
p1557
I2036
sVburgundy
p1558
I1050
sVsuv
p1559
I946
sVdead end
p1560
I2099
sVracing
p1561
I984
sVpublic
p1562
I663
sVwhite one
p1563
I2413
sVmovement
p1564
I2608
sVtattoos
p1565
I2772
sVfull
p1566
I585
sVtags
p1567
I1615
sVbowtie
p1568
I1386
sVsurfer
p1569
I752
sVtracks
p1570
I477
sVtrunk
p1571
I1148
sVdirections
p1572
I1602
sVstandard
p1573
I2266
sVhoagie
p1574
I2948
sVstuffed animals
p1575
I1204
sVahead
p1576
I1933
sVin zoo
p1577
I2434
sVsiamese
p1578
I1031
sVvegetarian
p1579
I1785
sVstretching
p1580
I2314
sVcucumbers
p1581
I2171
sVrocky
p1582
I2450
sVsoldier
p1583
I2956
sVairport
p1584
I179
sVright hand
p1585
I1432
sVlasagna
p1586
I2606
sVadvertising
p1587
I2814
sVswinging bat
p1588
I2470
sVcowboy hat
p1589
I2106
sV9:45
p1590
I2681
sVhoodie
p1591
I1507
sVfamily
p1592
I792
sVbuses
p1593
I1449
sVafrica
p1594
I256
sVtalking on cell phone
p1595
I1848
sV2:55
p1596
I2744
sVcatching frisbee
p1597
I1095
sVindoors
p1598
I442
sVtoys
p1599
I1087
sVdachshund
p1600
I2086
sVdonuts
p1601
I205
sVtexting
p1602
I573
sVpoodle
p1603
I922
sVpears
p1604
I2865
sVpitching
p1605
I1280
sV6
p1606
I17
sVraft
p1607
I2365
sVhorses
p1608
I133
sVflat
p1609
I1125
sVdiamond
p1610
I716
sVdoor
p1611
I481
sVnavy blue
p1612
I1691
sVfaucet
p1613
I1771
sVmelon
p1614
I2511
sVflag
p1615
I486
sVstick
p1616
I687
sVlemons
p1617
I1476
sVbaseball hat
p1618
I2632
sVtown
p1619
I1484
sVgrill
p1620
I1265
sVnone
p1621
I31
sVlilly
p1622
I2734
sV3 inches
p1623
I2167
sVklm
p1624
I1803
sVred and green
p1625
I806
sVhit ball
p1626
I793
sV1:15
p1627
I2274
sV4:00
p1628
I1786
sVdump truck
p1629
I2025
sVclock tower
p1630
I653
sVv
p1631
I2454
sVbrushing her teeth
p1632
I2761
sVseagull
p1633
I407
sVmale
p1634
I78
sVhong kong
p1635
I2820
sVmarble
p1636
I523
sVgreen and red
p1637
I1071
sVwoman's
p1638
I2350
sVhamburger
p1639
I1308
sVone in back
p1640
I2996
sVred and orange
p1641
I2998
sVbidet
p1642
I2876
sVwallet
p1643
I2962
sVautumn
p1644
I1241
sVnumbers
p1645
I1804
sVcows
p1646
I142
sVpond
p1647
I1580
sVairplane
p1648
I154
sVdress
p1649
I610
sVicing
p1650
I939
sVblueberries
p1651
I1742
sVgreen and black
p1652
I1289
sVcomfort
p1653
I2506
sVcity bus
p1654
I2023
sVon boat
p1655
I2428
sVnot very
p1656
I925
sVgoat
p1657
I642
sVus airways
p1658
I2071
sVno parking
p1659
I701
sVplant
p1660
I452
sVsandwich
p1661
I114
sVwater bottle
p1662
I1270
sVcountryside
p1663
I2066
sVcsx
p1664
I2908
sVwii control
p1665
I2853
sVplane
p1666
I109
sVlighting
p1667
I2277
sVblood
p1668
I2102
sVcoming
p1669
I1195
sVbackyard
p1670
I2268
sVhorizontal
p1671
I1106
sVa
p1672
I723
sVshort
p1673
I272
sVcoat
p1674
I899
sVvolleyball
p1675
I1039
sVdragon
p1676
I1348
sVcoal
p1677
I1194
sVshore
p1678
I1512
sVwii sports
p1679
I2830
sVchopsticks
p1680
I864
sVshade
p1681
I581
sVhello kitty
p1682
I1174
sVegg
p1683
I878
sVplaying
p1684
I197
sVpatio
p1685
I2282
sVpans
p1686
I2719
sVmexican
p1687
I1210
sVhandlebars
p1688
I2546
sVmercedes-benz
p1689
I1937
sVsoon
p1690
I2770
sVtennis match
p1691
I2502
sVauburn
p1692
I2836
sV10:50
p1693
I2518
sVpaper
p1694
I189
sV10:55
p1695
I1886
sVon skateboard
p1696
I2293
sVsigns
p1697
I1006
sVbroadway
p1698
I1596
sVsmiling
p1699
I363
sV24
p1700
I349
sV25
p1701
I182
sV26
p1702
I736
sV27
p1703
I588
sV20
p1704
I91
sV21
p1705
I413
sV22
p1706
I389
sV23
p1707
I396
sVheron
p1708
I2786
sV28
p1709
I513
sV29
p1710
I843
sVmattress
p1711
I2133
sVoff white
p1712
I1189
sVpeanuts
p1713
I2653
sVsoccer
p1714
I63
sVsauce
p1715
I615
sVevening
p1716
I235
sVfood
p1717
I64
sVhot dogs
p1718
I373
sVmales
p1719
I2530
sVtalking on phone
p1720
I446
sVno animal
p1721
I1639
sVcupcake
p1722
I1062
sVpeeing
p1723
I2409
sVfrisby
p1724
I2223
sVwalls
p1725
I2613
sVstarbucks
p1726
I851
sVweeds
p1727
I1244
sVfoot
p1728
I1288
sVblack, white
p1729
I826
sVsanta hat
p1730
I2978
sVkayaking
p1731
I1436
sVswimsuit
p1732
I1447
sVsnowboards
p1733
I1311
sVsomeone
p1734
I1980
sVstopped
p1735
I1563
sVtrailer
p1736
I1426
sVbrunette
p1737
I2544
sVengland
p1738
I371
sVpirates
p1739
I2311
sVhouse
p1740
I254
sVfish
p1741
I269
sVwhite and gray
p1742
I817
sVnot clear
p1743
I2078
sVgun
p1744
I1850
sVwires
p1745
I1137
sVcan't read
p1746
I2021
sVin wild
p1747
I2482
sVbillabong
p1748
I2683
sVair canada
p1749
I1035
sVflower
p1750
I290
sVday time
p1751
I1228
sVtennis ball
p1752
I462
sVpower lines
p1753
I1496
sVpigeon
p1754
I833
sVdugout
p1755
I1821
sVrace
p1756
I1585
sVsafety
p1757
I464
sVhill
p1758
I849
sV7
p1759
I30
sV9:15
p1760
I2778
sVprint
p1761
I2573
sVcaucasian
p1762
I647
sVhighway
p1763
I1560
sVhorseback riding
p1764
I1522
sVvery tall
p1765
I1617
sVforeground
p1766
I1141
sVdirt
p1767
I148
sVdriver
p1768
I1668
sVporcelain
p1769
I718
sVpug
p1770
I949
sVbulls
p1771
I2431
sVhouses
p1772
I1255
sVtoy
p1773
I490
sVcookie
p1774
I1227
sVcanon
p1775
I1826
sVeating grass
p1776
I2400
sVguy
p1777
I1321
sVbushes
p1778
I1029
sVsurfboarding
p1779
I1457
sVdishwasher
p1780
I1295
sVfar left
p1781
I2356
sVcomputers
p1782
I1333
sVamerican
p1783
I279
sVjelly
p1784
I2263
sVw
p1785
I674
sVdaisy
p1786
I639
sVsnowboarding
p1787
I76
sVcastle
p1788
I1849
sVred, black
p1789
I2252
sVcopper
p1790
I1836
sVadvertisement
p1791
I1741
sVwine glasses
p1792
I1695
sVdoughnuts
p1793
I654
sVright side
p1794
I875
sVfancy
p1795
I2067
sVfeeder
p1796
I2403
sVfeet
p1797
I1083
sVsmaller
p1798
I2346
sVweather vane
p1799
I2179
sVcups
p1800
I1479
sVwhale
p1801
I2707
sVmaple
p1802
I625
sVhorse
p1803
I43
sVbnsf
p1804
I2746
sVjet
p1805
I537
sVdark blue
p1806
I1178
sVrails
p1807
I2622
sVbroccoli
p1808
I54
sVstork
p1809
I2256
sVpaint
p1810
I500
sVleash
p1811
I1127
sVstation
p1812
I769
sVstorm
p1813
I2827
sVwashington dc
p1814
I1712
sVsyrup
p1815
I2347
sVbanana
p1816
I68
sVtennis rackets
p1817
I1247
sVon track
p1818
I1811
sVbehind
p1819
I621
sVhotel
p1820
I384
sVpark
p1821
I210
sVdrain
p1822
I2340
sVtheater
p1823
I2453
sVstairs
p1824
I911
sVreflection
p1825
I807
sVking
p1826
I1501
sVgrocery
p1827
I2006
sVb
p1828
I800
sVdouble
p1829
I1566
sVtop right
p1830
I1806
sVbride
p1831
I2710
sVemirates
p1832
I1233
sVstore
p1833
I520
sVcatch ball
p1834
I2098
sVoutdoors
p1835
I310
sVtoward
p1836
I1304
sVcleaner
p1837
I2815
sVit's raining
p1838
I1699
sVcoleslaw
p1839
I2397
sVcurtains
p1840
I887
sV10 feet
p1841
I956
sV1:05
p1842
I1833
sVjuice
p1843
I622
sVgraffiti
p1844
I297
sV1:00
p1845
I1832
sVyellow and red
p1846
I683
sVabove stove
p1847
I2368
sVlid
p1848
I1822
sVmountain
p1849
I266
sVwilson
p1850
I423
sVdancing
p1851
I1412
sVpajamas
p1852
I1875
sVcamouflage
p1853
I1187
sVcouch
p1854
I161
sVstreet signs
p1855
I2940
sVsandwiches
p1856
I889
sV4:15
p1857
I2316
sVbrace
p1858
I2169
sVtransparent
p1859
I2644
sVin grass
p1860
I1290
sVplay
p1861
I1510
sVtowards
p1862
I1117
sVelectric
p1863
I350
sVsingles
p1864
I1642
sVeggs
p1865
I722
sVtrains
p1866
I1571
sVsalmon
p1867
I1285
sV12:50
p1868
I2668
sVcoca cola
p1869
I432
sVcigarette
p1870
I937
sV75
p1871
I1007
sV74
p1872
I2745
sVbridle
p1873
I1779
sV72
p1874
I2336
sVmoss
p1875
I1543
sV70
p1876
I1133
sVnothing
p1877
I21
sVgray and black
p1878
I1126
sV11:10
p1879
I2149
sVmack
p1880
I2735
sVrefrigerator
p1881
I307
sV11:15
p1882
I2559
sVpatterned
p1883
I2638
sVwindows
p1884
I382
sVstuffed bear
p1885
I1582
sVclear
p1886
I87
sVcover
p1887
I2084
sVtongs
p1888
I1971
sVred and black
p1889
I387
sVtrain station
p1890
I426
sVclean
p1891
I400
sVasus
p1892
I2835
sVbarrel
p1893
I2439
sVmicrosoft
p1894
I1638
sVstones
p1895
I1483
sVbell pepper
p1896
I2728
sVgolf
p1897
I1943
sVsomewhat
p1898
I1940
sVasphalt
p1899
I577
sVsparrow
p1900
I1040
sVdirt bike
p1901
I1463
sVhugging
p1902
I2029
sVfreight
p1903
I1349
sVman's
p1904
I1744
sVblender
p1905
I565
sVcurrent
p1906
I2967
sVscooter
p1907
I751
sVchiquita
p1908
I1835
sVvery deep
p1909
I2774
sVmoney
p1910
I1711
sV8
p1911
I32
sVcircle
p1912
I249
sVobama
p1913
I1337
sVsure
p1914
I2960
sVgrocery store
p1915
I2213
sVgiants
p1916
I1001
sVshepherd
p1917
I1825
sVtriangle
p1918
I418
sVnot here
p1919
I1685
sVwhite and pink
p1920
I2094
sVsunny
p1921
I67
sVtrees
p1922
I92
sVplay tennis
p1923
I1895
sVbatter
p1924
I437
sVno one
p1925
I185
sVchimney
p1926
I2906
sVtarget
p1927
I2756
sVtaking off
p1928
I436
sVcatcher
p1929
I330
sVmotorcycles
p1930
I337
sVsleeve
p1931
I2867
sVon stove
p1932
I2187
sVpaddling
p1933
I2188
sVtabby
p1934
I547
sVbalancing
p1935
I2779
sVgloves
p1936
I496
sVswitzerland
p1937
I2704
sVx
p1938
I1433
sVriver
p1939
I416
sVon ground
p1940
I463
sVbars
p1941
I2599
sVart
p1942
I876
sVthrowing
p1943
I1056
sVrolex
p1944
I1938
sVlion
p1945
I1229
sVsea
p1946
I1658
sVtransportation
p1947
I976
sVarm
p1948
I1123
sVanalog
p1949
I2646
sVbarn
p1950
I1089
sVpractice
p1951
I2313
sVpictures
p1952
I526
sVunion station
p1953
I2411
sVpickup
p1954
I2111
sVprobably
p1955
I1338
sVcrosswalk
p1956
I1033
sVchampagne
p1957
I1661
sVnumerous
p1958
I2911
sV1 year
p1959
I1702
sVeurope
p1960
I991
sVpaisley
p1961
I2189
sVlight green
p1962
I1916
sVmissing
p1963
I2621
sVfire extinguisher
p1964
I2686
sVdrinking water
p1965
I1626
sVpepsi
p1966
I495
sVbrown and yellow
p1967
I2302
sVbronze
p1968
I1873
sVboth
p1969
I260
sVc
p1970
I902
sVrestaurant
p1971
I242
sVbaseball bat
p1972
I415
sVforeign
p1973
I2747
sVroman
p1974
I942
sVplaying games
p1975
I2312
sVmulti-colored
p1976
I1625
sV2:35
p1977
I1856
sVwhole
p1978
I2315
sVstoplight
p1979
I2868
sVlanyard
p1980
I1700
sVoars
p1981
I2736
sVcakes
p1982
I1990
sVbell
p1983
I1008
sVsweet
p1984
I1377
sVbadminton
p1985
I1910
sVchurch
p1986
I338
sVgoats
p1987
I1098
sVbelt
p1988
I1336
sVtop hat
p1989
I1813
sVladybug
p1990
I2788
sVhitting
p1991
I1729
sVpc
p1992
I1279
sVred and silver
p1993
I2119
sVireland
p1994
I2483
sVpeppers
p1995
I527
sVbrick
p1996
I95
sVmeeting
p1997
I2359
sVfamily room
p1998
I1751
sVempty
p1999
I891
sVpm
p2000
I1673
sVblankets
p2001
I1962
sVresting
p2002
I376
sVvans
p2003
I1355
sVram
p2004
I1405
sVpartly
p2005
I2497
sVcomcast
p2006
I2441
sVpassengers
p2007
I1110
sVfire
p2008
I651
sVgas
p2009
I341
sVorange and yellow
p2010
I1789
sVawake
p2011
I1843
sVfarmers market
p2012
I2402
sVplants
p2013
I602
sVvery old
p2014
I2920
sVfur
p2015
I830
sVraw
p2016
I1902
sVsolid
p2017
I327
sVballoons
p2018
I1951
sVstraight
p2019
I405
sVwhite and brown
p2020
I568
sVrope
p2021
I475
sVbikini
p2022
I1217
sV5:00
p2023
I1961
sVfun
p2024
I994
sVkissing
p2025
I2007
sVbiking
p2026
I1437
sVrobin
p2027
I1656
sVknee pads
p2028
I2131
sVswim
p2029
I2980
sV5:05
p2030
I2317
sVducks
p2031
I614
sVdecoration
p2032
I569
sVair conditioner
p2033
I2233
sVleaving
p2034
I1158
sVcoca-cola
p2035
I1015
sVchase
p2036
I1149
sVitaly
p2037
I857
sVshirt
p2038
I284
sV8:00
p2039
I2874
sVcumulus
p2040
I1085
sV9
p2041
I50
sVwindmill
p2042
I2831
sVhallway
p2043
I2603
sVstrips
p2044
I2389
sVkeys
p2045
I2174
sVleopard
p2046
I2144
sVcement
p2047
I318
sVwhite and red
p2048
I379
sVm
p2049
I1108
sVcucumber
p2050
I938
sVstripe
p2051
I735
sVbirch
p2052
I2150
sVsandals
p2053
I385
sVhome office
p2054
I2845
sVbeanie
p2055
I1000
sVmouse pad
p2056
I2030
sVolder
p2057
I1379
sVhorse racing
p2058
I1690
sVno grass
p2059
I2768
sVconcrete
p2060
I173
sVflags
p2061
I1242
sVy
p2062
I1441
sVyankees
p2063
I1145
sV11:25
p2064
I2895
sVeyeglasses
p2065
I2401
sVlistening
p2066
I1730
sV11:20
p2067
I1791
sV12:40
p2068
I2560
sVpigeons
p2069
I1345
sVcheddar
p2070
I2461
sV12:45
p2071
I2519
sVin field
p2072
I955
sVdb
p2073
I2730
sVone world
p2074
I2824
sVlexus
p2075
I1493
sVplains
p2076
I2790
sVping pong
p2077
I2240
sVcut
p2078
I1540
sVtablet
p2079
I1693
sVcup
p2080
I412
sVlady
p2081
I731
sVstainless steel
p2082
I631
sVburrito
p2083
I2505
sVblack/white
p2084
I1286
sVgrapefruit
p2085
I1541
sVkites
p2086
I121
sVradish
p2087
I2954
sVlimes
p2088
I2950
sVeaster
p2089
I1621
sVsurprised
p2090
I2917
sVaustralia
p2091
I1323
sVradiator
p2092
I1995
sVbig
p2093
I567
sVskateboards
p2094
I670
sVjp morgan
p2095
I1637
sVbib
p2096
I1558
sVgame
p2097
I601
sVflamingo
p2098
I2204
sVprivate
p2099
I919
sVbase
p2100
I2042
sVbrown and black
p2101
I933
sVformal
p2102
I1710
sVon tracks
p2103
I1240
sVd
p2104
I1913
sVsemi
p2105
I1840
sVtoyota
p2106
I728
sVglove
p2107
I369
sVfly kite
p2108
I1472
sVbaseball glove
p2109
I1153
sVblack and green
p2110
I2181
sVbamboo
p2111
I1094
sVzucchini
p2112
I2414
sV20 feet
p2113
I1427
sVgoogle
p2114
I1761
sVparade
p2115
I840
sVred white blue
p2116
I1930
sVspring
p2117
I223
sVno man
p2118
I1994
sVsome
p2119
I1392
sVback
p2120
I444
sVpalm
p2121
I257
sVclown
p2122
I2927
sVblue and white
p2123
I127
sVmirror
p2124
I222
sVcandle
p2125
I753
sVscale
p2126
I2217
sVwater skis
p2127
I2963
sVpet
p2128
I2997
sVtools
p2129
I2192
sV5:15
p2130
I2300
sVbritish airways
p2131
I1438
sVno idea
p2132
I410
sVpen
p2133
I742
sVsneakers
p2134
I420
sVgolden retriever
p2135
I1009
sVbaseball mitt
p2136
I2780
sV12:55
p2137
I1632
sVt
p2138
I947
sVin basket
p2139
I2909
sVon sidewalk
p2140
I918
sVcameraman
p2141
I1704
sVeating
p2142
I66
sV2:45
p2143
I2335
sV300
p2144
I1225
sVon sand
p2145
I2808
sVin background
p2146
I1010
sVrug
p2147
I404
sVwii bowling
p2148
I2557
sVgreat britain
p2149
I2687
sVnowhere
p2150
I268
sVsanta
p2151
I1664
sV5 feet
p2152
I1214
sVraspberry
p2153
I2163
sVdownward
p2154
I2843
sV???
p2155
I2301
sVblack white
p2156
I795
sVmario
p2157
I2973
sVkawasaki
p2158
I1575
sVam
p2159
I2541
sVmcdonald's
p2160
I768
sVyellow and orange
p2161
I1941
sVgraduation
p2162
I2205
sVsurfers
p2163
I1981
sVno cat
p2164
I1859
sVbeans
p2165
I860
sVidk
p2166
I1752
sVfrisbie
p2167
I2674
sVgermany
p2168
I872
sVdaisies
p2169
I1023
sVus open
p2170
I2645
sVcolorado
p2171
I1912
sVgarbage
p2172
I1005
sVwater skiing
p2173
I594
sVto eat
p2174
I1587
sVrackets
p2175
I1860
sVcarnations
p2176
I2563
sVsports
p2177
I1533
sVdownhill
p2178
I504
sVwine bottle
p2179
I2869
sVsightseeing
p2180
I2769
sVjockey
p2181
I1968
sVapartments
p2182
I1633
sVdunkin donuts
p2183
I893
sVfast
p2184
I948
sVgiraffe and zebra
p2185
I2748
sVsauerkraut
p2186
I2623
sVnintendo wii
p2187
I1115
sVhomemade
p2188
I2075
sVsuit
p2189
I584
sVforward
p2190
I329
sVbored
p2191
I2543
sVblue and silver
p2192
I2212
sVmountains
p2193
I244
sVhimself
p2194
I1683
sVhawaiian
p2195
I1967
sVposter
p2196
I1847
sVt-shirt
p2197
I988
sVboys
p2198
I1314
sVno sign
p2199
I2070
sVtennis court
p2200
I451
sVdole
p2201
I2024
sVdelta
p2202
I501
sVrussian
p2203
I2049
sVcrane
p2204
I890
sVcalico
p2205
I798
sVpenguin
p2206
I1817
sVlifeguard
p2207
I2292
sVclydesdale
p2208
I1935
sVskull
p2209
I1502
sVfries
p2210
I587
sVup
p2211
I118
sVus
p2212
I710
sVcoffee pot
p2213
I2816
sVuk
p2214
I1273
sVplanes
p2215
I600
sVwine glass
p2216
I747
sVfried
p2217
I1450
sVgeese
p2218
I1076
sVadults
p2219
I1165
sVpencil
p2220
I2654
sVnighttime
p2221
I595
sVsepia
p2222
I2040
sVsingle
p2223
I1298
sVwarning
p2224
I1394
sVcurb
p2225
I1271
sVflying kites
p2226
I558
sVcafe
p2227
I1703
sVcotton
p2228
I572
sVrainbow
p2229
I466
sVrainy
p2230
I408
sVlemon
p2231
I425
sVpeach
p2232
I825
sVpeace
p2233
I1185
sVtomato sauce
p2234
I2850
sVparakeet
p2235
I2162
sVmayonnaise
p2236
I2377
sVtarp
p2237
I2243
sV1 way
p2238
I2708
sVvalentine's day
p2239
I1756
sVnice
p2240
I975
sVbrushing
p2241
I1454
sVcan't see it
p2242
I2783
sVspectators
p2243
I2147
sVmustard
p2244
I552
sVlooking for food
p2245
I2847
sVlufthansa
p2246
I1073
sVwakeboarding
p2247
I1830
sVfuton
p2248
I2817
sVdesert
p2249
I620
sVearphones
p2250
I2463
sVin car
p2251
I1545
sVpottery
p2252
I2825
sVtake off
p2253
I2489
sVland
p2254
I1045
sVe
p2255
I1082
sVherd
p2256
I2464
sVpedestrians
p2257
I1919
sVvehicles
p2258
I2245
sVcooked
p2259
I1565
sV2000
p2260
I1251
sVtaking picture
p2261
I530
sV2007
p2262
I1879
sVparking meter
p2263
I591
sV2005
p2264
I2854
sVfresh
p2265
I1245
sV2008
p2266
I2430
sVberries
p2267
I1374
sVbuffalo
p2268
I2073
sVstroller
p2269
I1726
sVat home
p2270
I2856
sVthomas
p2271
I2890
sVdesserts
p2272
I1874
sVwindy
p2273
I1260
sVfood truck
p2274
I2014
sVgo
p2275
I472
sVvery high
p2276
I2011
sVpizza hut
p2277
I2251
sVgold
p2278
I247
sVwindowsill
p2279
I2035
sVyoung
p2280
I375
sVsuits
p2281
I2136
sVgreen and blue
p2282
I1070
sVcasserole
p2283
I1889
sVfrisbees
p2284
I1759
sVcluttered
p2285
I2907
sVgravel
p2286
I920
sVjet ski
p2287
I2620
sV11:30
p2288
I2391
sVpink and blue
p2289
I2009
sVgarden
p2290
I1627
sVoutside
p2291
I85
sVdessert
p2292
I386
sVwave
p2293
I772
sVnot shown
p2294
I1979
sVspoon
p2295
I192
sVwavy
p2296
I1999
sVdrinking
p2297
I358
sVon building
p2298
I1059
sVlegos
p2299
I2448
sVasparagus
p2300
I936
sVbutton
p2301
I2371
sVgray and white
p2302
I576
sV?
p2303
I943
sVheineken
p2304
I2046
sVchoppy
p2305
I2141
sVrack
p2306
I1168
sV7:05
p2307
I2899
sVvideo games
p2308
I1643
sVcrow
p2309
I1440
sV350
p2310
I1931
sVin ocean
p2311
I2675
sVham
p2312
I555
sVboots
p2313
I470
sVair france
p2314
I1485
sVjump
p2315
I969
sVvideo
p2316
I1949
sVtraveling
p2317
I1313
sVspaghetti
p2318
I1841
sVindex
p2319
I2465
sVsausage
p2320
I605
sVcupcakes
p2321
I1140
sVcheckers
p2322
I2022
sVpower
p2323
I1677
sVpaintings
p2324
I2951
sVchicago
p2325
I831
sVpipes
p2326
I2933
sVpaddle
p2327
I841
sVwindow sill
p2328
I1383
sVcell
p2329
I1952
sVwaiting
p2330
I666
sVindian
p2331
I750
sVpoles
p2332
I478
sVgoatee
p2333
I2249
sVchain link
p2334
I808
sVbird
p2335
I100
sVwii game
p2336
I2759
sVleg
p2337
I1881
sVkangaroo
p2338
I2435
sVcommercial
p2339
I765
sVnikon
p2340
I2343
sVraspberries
p2341
I2048
sVpacking
p2342
I2294
sVsink
p2343
I306
sVpancake
p2344
I2513
sVleft hand
p2345
I2376
sV39
p2346
I1548
sV38
p2347
I711
sVmetro
p2348
I1782
sV33
p2349
I867
sV32
p2350
I675
sV31
p2351
I982
sV30
p2352
I186
sV37
p2353
I1373
sV36
p2354
I1051
sV35
p2355
I508
sV34
p2356
I771
sVtour bus
p2357
I2794
sVvideo game
p2358
I714
sVapple
p2359
I60
sVscania
p2360
I2574
sVcell phones
p2361
I1183
sVwii
p2362
I53
sVhotel room
p2363
I1474
sVriding horse
p2364
I1570
sVmotor
p2365
I1577
sVduck
p2366
I525
sVoval
p2367
I502
sVsan francisco
p2368
I965
sVsinging
p2369
I1939
sVcloud
p2370
I1620
sVlime
p2371
I1351
sVstanding
p2372
I75
sVred, white, and blue
p2373
I2241
sVchina airlines
p2374
I2170
sVusa
p2375
I194
sVunder armour
p2376
I2851
sVfrog
p2377
I1612
sVthrow
p2378
I1958
sVfew
p2379
I1363
sVcamera
p2380
I90
sVcrab
p2381
I2840
sVvehicle
p2382
I2062
sVmidday
p2383
I914
sVplaying frisbee
p2384
I489
sVporch
p2385
I2791
sVhalf full
p2386
I2713
sVstone
p2387
I221
sVleft handed
p2388
I2886
sVtrain
p2389
I70
sVrabbit
p2390
I1407
sVbaby
p2391
I296
sVmitsubishi
p2392
I2930
sVwhite and black
p2393
I250
sVwomen
p2394
I658
sVballs
p2395
I2053
sVanimals
p2396
I1028
sVsalad
p2397
I325
sVf
p2398
I1816
sVtunnel
p2399
I2594
sVride
p2400
I1772
sVred light
p2401
I2739
sVdonut
p2402
I123
sVcarrot
p2403
I251
sVthin
p2404
I1181
sVpelicans
p2405
I2866
sVshoulder
p2406
I2680
sVshower curtain
p2407
I1659
sVcontrol
p2408
I2945
sVi don't know
p2409
I312
sVketchup and mustard
p2410
I2647
sVhalloween
p2411
I865
sVhigh
p2412
I690
sVhammer time
p2413
I2276
sVtag
p2414
I862
sVhit
p2415
I1597
sVtan
p2416
I49
sVskirt
p2417
I1192
sVlamb
p2418
I1157
sVunited
p2419
I549
sVonions
p2420
I634
sVtoaster oven
p2421
I1716
sVboxing
p2422
I1442
sVlamp
p2423
I421
sVwhite and tan
p2424
I2614
sVforest
p2425
I648
sVanimal
p2426
I1154
sVbandana
p2427
I882
sVtoddler
p2428
I2661
sVcircular
p2429
I1116
sVwhite black
p2430
I2081
sVbuildings
p2431
I689
sVblocks
p2432
I2781
sVfarm
p2433
I671
sVstop
p2434
I59
sVwallpaper
p2435
I1831
sVdc
p2436
I2762
sVurinal
p2437
I1924
sVnotebook
p2438
I2264
sVties
p2439
I1269
sVcabbage
p2440
I1218
sVhawk
p2441
I1506
sVterrier
p2442
I657
sVtomato
p2443
I276
sVin his hand
p2444
I2635
sVlight
p2445
I217
sVcounter
p2446
I288
sVlines
p2447
I1188
sVrobot
p2448
I2702
sVbakery
p2449
I834
sVchevrolet
p2450
I1564
sVnecklace
p2451
I545
sVswimming
p2452
I557
sVstuffed animal
p2453
I688
sVmustache
p2454
I1179
sVbathing
p2455
I1478
sV12:10
p2456
I2473
sVdown street
p2457
I2969
sVmeter
p2458
I1292
sVspatula
p2459
I1316
sVtaking pictures
p2460
I1458
sVmotorcycle
p2461
I79
sVmutt
p2462
I838
sVhorns
p2463
I1139
sVbunch
p2464
I2370
sVlg
p2465
I1065
sVpaper towel
p2466
I2932
sVsilk
p2467
I2156
sVla
p2468
I2699
sVbroom
p2469
I2691
sVrelish
p2470
I1828
sVsquatting
p2471
I2437
sVorange
p2472
I22
sV2016
p2473
I1887
sV2011
p2474
I1213
sV2010
p2475
I1003
sV2013
p2476
I1162
sV2012
p2477
I905
sVdad
p2478
I1863
sVfeta
p2479
I2805
sVthrow frisbee
p2480
I2626
sVbud light
p2481
I1696
sVnokia
p2482
I809
sVoranges
p2483
I265
sVtoshiba
p2484
I1393
sVdock
p2485
I847
sVcutting
p2486
I719
sVpowdered sugar
p2487
I1794
sVsnake
p2488
I2721
sValaska
p2489
I1526
sVhands
p2490
I702
sVfront
p2491
I301
sV1:55
p2492
I2246
sVcage
p2493
I1942
sVday
p2494
I140
sV1:50
p2495
I1583
sV4:45
p2496
I2924
sVto see
p2497
I2723
sVmore than 20
p2498
I2426
sVsniffing
p2499
I2218
sVweather
p2500
I2743
sVcrossing
p2501
I1714
sVrising
p2502
I2955
sVtray
p2503
I697
sVglasses
p2504
I151
sVultimate frisbee
p2505
I1525
sVlilac
p2506
I2529
sVcross country skiing
p2507
I1590
sVon bed
p2508
I623
sVglobe
p2509
I2057
sVin motion
p2510
I2604
sVn/a
p2511
I1084
sVto left
p2512
I645
sVmulticolored
p2513
I1017
sV88
p2514
I2777
sVbooks
p2515
I324
sVin kitchen
p2516
I2108
sV80
p2517
I1054
sVdr pepper
p2518
I2239
sVshearing
p2519
I2451
sVsandy
p2520
I2810
sVout
p2521
I744
sVparasailing
p2522
I921
sVoriental
p2523
I2408
sVbrown and white
p2524
I258
sVcaramel
p2525
I2303
sVelectronics
p2526
I1905
sVmt airy
p2527
I2427
sVwindsurfing
p2528
I1063
sVred
p2529
I7
sVoblong
p2530
I2822
sVshut
p2531
I2050
sVwater ski
p2532
I2983
sVumbrella
p2533
I77
sVmulticolor
p2534
I2008
sVipod
p2535
I1574
sVnapkins
p2536
I2677
sVdoubles
p2537
I1722
sVit isn't
p2538
I2751
sVborder collie
p2539
I2458
sVretriever
p2540
I1640
sVno number
p2541
I1231
sVbackwards
p2542
I1238
sVyard
p2543
I1534
sVg
p2544
I1891
sVyellow and brown
p2545
I2503
sVgrassy
p2546
I2586
sVskateboard
p2547
I46
sVducati
p2548
I1864
sVyarn
p2549
I2041
sVproduce
p2550
I1424
sVears
p2551
I1743
sVvegetables
p2552
I267
sVsouth
p2553
I580
sVknife and fork
p2554
I1464
sVplaystation
p2555
I2934
sVtennis racket
p2556
I174
sVjesus
p2557
I2605
sVowner
p2558
I1246
sVumbrellas
p2559
I394
sV5:10
p2560
I2203
sVred, white, blue
p2561
I1947
sVmonkey
p2562
I981
sVprivacy
p2563
I2656
sVbears
p2564
I476
sVunknown
p2565
I69
sVpots
p2566
I1093
sVbig ben
p2567
I877
sVnew york
p2568
I355
sVdecorations
p2569
I1953
sVhexagon
p2570
I2422
sVblue and black
p2571
I846
sVliquor
p2572
I2309
sVbeard
p2573
I786
sVshell
p2574
I2059
sVlot
p2575
I167
sVshorts
p2576
I334
sVbulldog
p2577
I870
sVshelf
p2578
I518
sVshallow
p2579
I1293
sVschool bus
p2580
I1267
sVyellow and blue
p2581
I603
sVgarbage can
p2582
I2698
sVbranches
p2583
I1800
sVsteel
p2584
I449
sVphotograph
p2585
I2016
sVblue and brown
p2586
I2837
sV2:50
p2587
I1732
sVbed
p2588
I107
sVsweden
p2589
I2979
sVhispanic
p2590
I2819
sVlooking at camera
p2591
I1488
sVmaybe
p2592
I81
sVwheelchair
p2593
I1589
sV54
p2594
I1680
sVcarrots
p2595
I198
sVcricket
p2596
I2992
sVone way
p2597
I536
sVclose
p2598
I2127
sVcurved
p2599
I1927
sV6:45
p2600
I2898
sVmicrophone
p2601
I1038
sVsprinkles
p2602
I951
sVdishes
p2603
I1264
sVtoo many to count
p2604
I1737
sVbagel
p2605
I1166
sVmango
p2606
I2077
sVharry potter
p2607
I2806
sVkorean
p2608
I1901
sVlily
p2609
I1309
sVsoap
p2610
I794
sVcamper
p2611
I2803
sVkickstand
p2612
I1531
sV6 ft
p2613
I2726
sVbiplane
p2614
I2440
sVlogitech
p2615
I1918
sVsedan
p2616
I1268
sVsmiley face
p2617
I2135
sVmedal
p2618
I2485
sVhot dog
p2619
I104
sVthanksgiving
p2620
I1466
sVface
p2621
I691
sVpipe
p2622
I1753
sVscrambled
p2623
I1868
sVstrawberries
p2624
I543
sVlos angeles
p2625
I1576
sVmovie
p2626
I1746
sVpainting
p2627
I540
sVtowards camera
p2628
I1815
sVblack and gray
p2629
I990
sVteddy bear
p2630
I191
sVwatching tv
p2631
I1074
sVkite
p2632
I44
sVstove
p2633
I430
sVindoor
p2634
I1475
sVantelope
p2635
I2318
sVbiker
p2636
I2354
sVbikes
p2637
I519
sVparked
p2638
I741
sVbedroom
p2639
I99
sVchicken
p2640
I196
sVon man
p2641
I2280
sVbaseball player
p2642
I1974
sVtire
p2643
I1798
sVmud
p2644
I1370
sVnot possible
p2645
I293
sVfans
p2646
I2731
sVpolice officer
p2647
I2198
sVbuttons
p2648
I2524
sVtape
p2649
I1460
sVplaying tennis
p2650
I360
sVpiano
p2651
I1353
sVon sink
p2652
I2089
sVon computer
p2653
I2823
sVdodge
p2654
I2259
sVhandle
p2655
I992
sVwatching
p2656
I471
sVphotography
p2657
I1884
sVstripes
p2658
I176
sVbear
p2659
I82
sV120
p2660
I2019
sVcubs
p2661
I1364
sVwords
p2662
I898
sVstriped
p2663
I291
sVchips
p2664
I1075
sVstyrofoam
p2665
I2010
sVsweat
p2666
I2889
sVgray
p2667
I16
sVtrucks
p2668
I1694
sVh
p2669
I1966
sVmarried
p2670
I2767
sVpirate
p2671
I2265
sVdog and cat
p2672
I2842
sVstuff
p2673
I2555
sVmercedes
p2674
I929
sVcostume
p2675
I2399
sVspotted
p2676
I2958
sVamerican airlines
p2677
I1909
sVhardwood
p2678
I749
sVframe
p2679
I2044
sVhumans
p2680
I1852
sVroman numerals
p2681
I1259
sVskateboard trick
p2682
I2468
sVcomputer
p2683
I171
sVdriveway
p2684
I2143
sVskateboarding
p2685
I41
sVracket
p2686
I274
sVon bus
p2687
I2532
sV1:45
p2688
I2456
sV8 feet
p2689
I2012
sVgreen and white
p2690
I398
sV4:50
p2691
I2797
sVwire
p2692
I447
sV12 feet
p2693
I2137
sVamtrak
p2694
I1610
sVpattern
p2695
I2720
sVcarriage
p2696
I700
sVvirgin atlantic
p2697
I2758
sVhammock
p2698
I2785
sVidentification
p2699
I2153
sVclosed
p2700
I204
sVneither
p2701
I270
sVflickr
p2702
I2308
sVred, white
p2703
I1160
sVtent
p2704
I1303
sVblack and red
p2705
I730
sVcauliflower
p2706
I1519
sVcutting board
p2707
I616
sVparking meters
p2708
I2486
sVkicking
p2709
I2766
sVstucco
p2710
I2500
sVblack and white
p2711
I42
sVstaring
p2712
I979
sVski resort
p2713
I2120
sVon top
p2714
I1579
sVon beach
p2715
I952
sVblue and orange
p2716
I2235
sVramp
p2717
I686
sVrams
p2718
I2935
sVwillow
p2719
I2667
sVdoorway
p2720
I2695
sVgrain
p2721
I2566
sVin snow
p2722
I2271
sVcanopy
p2723
I1964
sVpeanut butter
p2724
I2101
sVvent
p2725
I1708
sVunclear
p2726
I837
sVgone
p2727
I1606
sVwall
p2728
I132
sVdenim
p2729
I1594
sVwalk
p2730
I788
sVarugula
p2731
I2477
sVtable
p2732
I62
sVlooking at phone
p2733
I2424
sVin water
p2734
I510
sVtank top
p2735
I1439
sVflowered
p2736
I2971
sVmotorbike
p2737
I881
sVtraffic light
p2738
I1312
sV3 ft
p2739
I2583
sVcurtain
p2740
I650
sVkitchen
p2741
I28
sVbbq
p2742
I2561
sVorange and white
p2743
I571
sVred white
p2744
I1390
sVcommuter
p2745
I1697
sVtoward camera
p2746
I2663
sVpainted
p2747
I2032
sVone on left
p2748
I859
sVairplanes
p2749
I1235
sV2015
p2750
I2298
sVcontroller
p2751
I391
sVaccident
p2752
I2139
sVbull
p2753
I693
sVsmoking
p2754
I1607
sVspain
p2755
I2033
sVmulti
p2756
I698
sVplaid
p2757
I261
sVplain
p2758
I521
sVvanilla
p2759
I553
sVrectangular
p2760
I816
sVchalk
p2761
I2320
sVafrican american
p2762
I1872
sVwild
p2763
I443
sVbathtub
p2764
I1036
sVtoothbrushes
p2765
I1417
sVon street
p2766
I754
sVrooster
p2767
I1970
sVgothic
p2768
I1557
sVswinging
p2769
I1100
sVvw
p2770
I2812
sVtowel rack
p2771
I2829
sVarabic
p2772
I1399
sVtattoo
p2773
I1196
sVwinnie pooh
p2774
I2870
sVplayers
p2775
I2753
sVvintage
p2776
I2666
sVballoon
p2777
I2003
sVcross
p2778
I611
sVno flowers
p2779
I2589
sVspeaker
p2780
I1414
sVflour
p2781
I1900
sVparty
p2782
I781
sVtomatoes
p2783
I445
sVball
p2784
I134
sVdusk
p2785
I516
sVdrink
p2786
I712
sVoctagon
p2787
I560
sVhair dryer
p2788
I1198
sVlaptop computer
p2789
I2226
sVstudent
p2790
I2755
sVoveralls
p2791
I2118
sVcollar
p2792
I374
sVsunrise
p2793
I1854
sVstreet light
p2794
I1773
sVoff
p2795
I345
sVcenter
p2796
I707
sVyellow and green
p2797
I927
sVi
p2798
I2634
sVovercast
p2799
I188
sVgerman shepherd
p2800
I967
sVmen's
p2801
I1701
sVfighting
p2802
I1480
sVleft side
p2803
I971
sVroast beef
p2804
I1629
sVenglish
p2805
I157
sVdrawing
p2806
I1820
sVslacks
p2807
I2811
sVon left
p2808
I524
sVtaller
p2809
I2611
sVbananas
p2810
I110
sVcamel
p2811
I2236
sVsavannah
p2812
I1796
sVoak
p2813
I311
sVmaple leaf
p2814
I2342
sVdomestic
p2815
I1654
sVarriving
p2816
I1682
sVclocks
p2817
I1977
sVfishing
p2818
I590
sVseats
p2819
I2915
sVfire hydrant
p2820
I280
sVblue green
p2821
I1911
sVhappiness
p2822
I1358
sVtoilets
p2823
I2244
sVfield
p2824
I214
sVgmc
p2825
I2602
sVresidential
p2826
I1666
sVsky
p2827
I231
sVlake
p2828
I366
sVbench
p2829
I101
sVwet
p2830
I774
sVski
p2831
I388
sVledge
p2832
I2038
sVgovernment
p2833
I2859
sVstreet sign
p2834
I1043
sVdesk
p2835
I238
sVpropeller
p2836
I1346
sVdoughnut
p2837
I439
sVintersection
p2838
I1774
sVpier
p2839
I1180
sVon field
p2840
I2272
sVmotorola
p2841
I1360
sVonion
p2842
I892
sVchairs
p2843
I790
sVsofa
p2844
I640
sVat&t
p2845
I2585
sVcandy
p2846
I968
sVcontrollers
p2847
I1844
sVgarage
p2848
I1090
sVmountain dew
p2849
I2571
sVsoft
p2850
I1328
sVitalian
p2851
I570
sVoutfield
p2852
I2549
sVwhite, black
p2853
I1451
sVlibrary
p2854
I986
sVhair
p2855
I292
sVcan't tell
p2856
I195
sVcleveland
p2857
I2991
sVhome
p2858
I226
sV250
p2859
I2690
sVtransport
p2860
I2148
sVus air force
p2861
I2429
sVleaf
p2862
I1184
sVgreen and yellow
p2863
I679
sVkettle
p2864
I1915
sVfedex
p2865
I879
sVfountain
p2866
I2445
sVon laptop
p2867
I1883
sValuminum foil
p2868
I2855
sVearrings
p2869
I1992
sVchains
p2870
I2600
sVblurry
p2871
I1249
sVpepper
p2872
I682
sVhose
p2873
I2262
sVin middle
p2874
I1561
sVmitt
p2875
I1278
sVbowling
p2876
I909
sVdaffodils
p2877
I2496
sVlighthouse
p2878
I884
sVpasta
p2879
I685
sVfluorescent
p2880
I1914
sV11:35
p2881
I2472
sVhiding
p2882
I2405
sViris
p2883
I2861
sVshaking hands
p2884
I2553
sVnot visible
p2885
I1418
sVsaddle
p2886
I1376
sVcatch frisbee
p2887
I2372
sVtaking selfie
p2888
I2191
sVrodeo
p2889
I1783
sVseeds
p2890
I1805
sVbeige
p2891
I113
sVblue and gray
p2892
I1053
sVtongue
p2893
I1299
sVferris wheel
p2894
I2993
sVpastries
p2895
I1310
sVblack and orange
p2896
I1975
sVowl
p2897
I910
sVletters
p2898
I1296
sVmets
p2899
I1945
sVstop sign
p2900
I468
sVwashington
p2901
I1101
sVsocks
p2902
I1150
sVmushrooms
p2903
I873
sVno pattern
p2904
I2467
sVtrunks
p2905
I2092
sVbrush
p2906
I799
sVfemale
p2907
I88
sVon shelf
p2908
I1297
sVagainst wall
p2909
I1987
sVvan
p2910
I515
sVmuseum
p2911
I1086
sVspiral
p2912
I2957
sVspots
p2913
I1869
sVcontinental
p2914
I2258
sVcoffee cup
p2915
I2221
sVsuzuki
p2916
I1340
sVbackhand
p2917
I1416
sVred bull
p2918
I1839
sVivory
p2919
I1723
sVnorth
p2920
I482
sVbus
p2921
I74
sVhp
p2922
I678
sVsweatband
p2923
I1325
sVdelivery
p2924
I2804
sVneutral
p2925
I2717
sVconstruction
p2926
I1232
sVbun
p2927
I822
sV9:50
p2928
I2476
sVbookshelf
p2929
I1646
sVear
p2930
I2172
sVeat
p2931
I1163
sV5:40
p2932
I1985
sVpolar bears
p2933
I2977
sVstate farm
p2934
I2959
sVmy best guess is yes
p2935
I2974
sVj
p2936
I2995
sVsmooth
p2937
I1608
sVflip
p2938
I1469
sVabstract
p2939
I2002
sVvolvo
p2940
I1925
sVbelow
p2941
I1318
sVpartly cloudy
p2942
I1258
sVcake
p2943
I51
sVdisplay
p2944
I1715
sVskating
p2945
I390
sVwebsite
p2946
I2267
sVsupreme
p2947
I2501
sVtissues
p2948
I1842
sVpie
p2949
I828
sVmaroon
p2950
I578
sVpig
p2951
I1200
sVutensils
p2952
I1523
sVboardwalk
p2953
I2760
sVreferee
p2954
I1790
sVcheetah
p2955
I2966
sVbest buy
p2956
I2562
sVlight blue
p2957
I725
sVsweatshirt
p2958
I1736
sVsquirrel
p2959
I2452
sVmushroom
p2960
I1199
sV48
p2961
I1356
sV49
p2962
I2000
sV46
p2963
I1535
sV47
p2964
I1518
sV44
p2965
I977
sV45
p2966
I762
sV42
p2967
I957
sV43
p2968
I1277
sV40
p2969
I333
sV41
p2970
I1151
sVbook
p2971
I314
sVoar
p2972
I1725
sVbranch
p2973
I483
sVfinch
p2974
I1219
sVgranite
p2975
I632
sVgas station
p2976
I1647
sVponytail
p2977
I528
sVdresser
p2978
I1368
sVjunk
p2979
I2466
sVfrisbee
p2980
I20
sVstar
p2981
I551
sVcannot tell
p2982
I586
sVpink and yellow
p2983
I2295
sVfootprints
p2984
I2196
sVleft and right
p2985
I2509
sVon toilet
p2986
I2161
sVfoil
p2987
I1409
sVjetblue
p2988
I1628
sVnintendo
p2989
I1176
sVno 1
p2990
I2326
sVfriends
p2991
I1107
sVopened
p2992
I2533
sVplatter
p2993
I2953
sVsamsung
p2994
I550
sV2 feet
p2995
I820
sVrural
p2996
I827
sVbuoy
p2997
I2965
sVbaked
p2998
I2211
sVrailroad crossing
p2999
I2387
s.